---
triple:          'arm64-apple-darwin'
binary-path:     './PikaCmd'
relocations:
  - { offset: 0x316A, size: 0x8, addend: 0x0, symName: __ZN4Pika6escapeINSt3__112basic_stringIcNS1_11char_traitsIcEENS1_9allocatorIcEEEEEET_RKS8_, symObjAddr: 0xC68, symBinAddr: 0x10000214C, symSize: 0x330 }
  - { offset: 0x3195, size: 0x8, addend: 0x0, symName: __ZZN4Pika6escapeINSt3__112basic_stringIcNS1_11char_traitsIcEENS1_9allocatorIcEEEEEET_RKS8_E12ESCAPE_CHARS, symObjAddr: 0x30DF0, symBinAddr: 0x10002F73C, symSize: 0x0 }
  - { offset: 0x31B7, size: 0x8, addend: 0x0, symName: __ZZN4Pika6escapeINSt3__112basic_stringIcNS1_11char_traitsIcEENS1_9allocatorIcEEEEEET_RKS8_E12ESCAPE_CODES, symObjAddr: 0x30DFA, symBinAddr: 0x10002F746, symSize: 0x0 }
  - { offset: 0x3D14, size: 0x8, addend: 0x0, symName: __ZN4Pika8unescapeINSt3__112basic_stringIcNS1_11char_traitsIcEENS1_9allocatorIcEEEEEET_RNS8_14const_iteratorERKS9_, symObjAddr: 0x4874, symBinAddr: 0x100005D58, symSize: 0x570 }
  - { offset: 0x3D3F, size: 0x8, addend: 0x0, symName: __ZZN4Pika8unescapeINSt3__112basic_stringIcNS1_11char_traitsIcEENS1_9allocatorIcEEEEEET_RNS8_14const_iteratorERKS9_E12ESCAPE_CHARS, symObjAddr: 0x30E04, symBinAddr: 0x10002F750, symSize: 0x0 }
  - { offset: 0x3D61, size: 0x8, addend: 0x0, symName: __ZZN4Pika8unescapeINSt3__112basic_stringIcNS1_11char_traitsIcEENS1_9allocatorIcEEEEEET_RNS8_14const_iteratorERKS9_E12ESCAPE_CODES, symObjAddr: 0x30E0E, symBinAddr: 0x10002F75A, symSize: 0x0 }
  - { offset: 0x528C, size: 0x8, addend: 0x0, symName: __ZN4Pika6escapeIN8QStrings7QStringIcLm52EEEEET_RKS4_, symObjAddr: 0xF2BC, symBinAddr: 0x100010760, symSize: 0x35C }
  - { offset: 0x52B7, size: 0x8, addend: 0x0, symName: __ZZN4Pika6escapeIN8QStrings7QStringIcLm52EEEEET_RKS4_E12ESCAPE_CHARS, symObjAddr: 0x317D7, symBinAddr: 0x100030123, symSize: 0x0 }
  - { offset: 0x52D9, size: 0x8, addend: 0x0, symName: __ZZN4Pika6escapeIN8QStrings7QStringIcLm52EEEEET_RKS4_E12ESCAPE_CODES, symObjAddr: 0x317E1, symBinAddr: 0x10003012D, symSize: 0x0 }
  - { offset: 0x8946, size: 0x8, addend: 0x0, symName: __ZN4Pika8unescapeIN8QStrings7QStringIcLm52EEEEET_RNS4_14const_iteratorERKS5_, symObjAddr: 0x23644, symBinAddr: 0x1000242E0, symSize: 0x750 }
  - { offset: 0x8971, size: 0x8, addend: 0x0, symName: __ZZN4Pika8unescapeIN8QStrings7QStringIcLm52EEEEET_RNS4_14const_iteratorERKS5_E12ESCAPE_CHARS, symObjAddr: 0x31A8C, symBinAddr: 0x1000303D8, symSize: 0x0 }
  - { offset: 0x8993, size: 0x8, addend: 0x0, symName: __ZZN4Pika8unescapeIN8QStrings7QStringIcLm52EEEEET_RNS4_14const_iteratorERKS5_E12ESCAPE_CODES, symObjAddr: 0x31A96, symBinAddr: 0x1000303E2, symSize: 0x0 }
  - { offset: 0x9AA3, size: 0x8, addend: 0x0, symName: __ZN4Pika11intToStringINSt3__112basic_stringIcNS1_11char_traitsIcEENS1_9allocatorIcEEEElEET_T0_ii, symObjAddr: 0x17D0, symBinAddr: 0x100002CB4, symSize: 0x100 }
  - { offset: 0x9BD5, size: 0x8, addend: 0x0, symName: __ZN4Pika11intToStringINSt3__112basic_stringIcNS1_11char_traitsIcEENS1_9allocatorIcEEEEhEET_T0_ii, symObjAddr: 0x136F4, symBinAddr: 0x1000149CC, symSize: 0xE4 }
  - { offset: 0x9D07, size: 0x8, addend: 0x0, symName: __ZN4Pika14stringToDoubleINSt3__112basic_stringIcNS1_11char_traitsIcEENS1_9allocatorIcEEEEEEdRNT_14const_iteratorERKS9_, symObjAddr: 0x515C, symBinAddr: 0x100006640, symSize: 0x22C }
  - { offset: 0xA1AF, size: 0x8, addend: 0x0, symName: __ZN4Pika6ScriptINS_9StdConfigEE5Frame4postERNSt3__111__wrap_iterIPKcEERKS8_RNS4_4pairIbNS_8STLValueINS4_12basic_stringIcNS4_11char_traitsIcEENS4_9allocatorIcEEEEEEEEbNS_10PrecedenceE, symObjAddr: 0x5388, symBinAddr: 0x10000686C, symSize: 0x1770 }
  - { offset: 0xA1C2, size: 0x8, addend: 0x0, symName: __ZN4Pika9hexToLongINSt3__112basic_stringIcNS1_11char_traitsIcEENS1_9allocatorIcEEEEEEmRNT_14const_iteratorERKS9_, symObjAddr: 0x50C4, symBinAddr: 0x1000065A8, symSize: 0x98 }
  - { offset: 0xA2F0, size: 0x8, addend: 0x0, symName: __ZN4Pika14stringToDoubleINSt3__112basic_stringIcNS1_11char_traitsIcEENS1_9allocatorIcEEEEEEdRNT_14const_iteratorERKS9_, symObjAddr: 0x515C, symBinAddr: 0x100006640, symSize: 0x22C }
  - { offset: 0xA303, size: 0x8, addend: 0x0, symName: __ZN4Pika12stringToLongINSt3__112basic_stringIcNS1_11char_traitsIcEENS1_9allocatorIcEEEEEElRNT_14const_iteratorERKS9_, symObjAddr: 0x13BD8, symBinAddr: 0x100014E0C, symSize: 0xC0 }
  - { offset: 0xA47D, size: 0x8, addend: 0x0, symName: __ZN4Pika14stringToDoubleINS_8STLValueINSt3__112basic_stringIcNS2_11char_traitsIcEENS2_9allocatorIcEEEEEEEEbRKT_Rd, symObjAddr: 0x13C98, symBinAddr: 0x100014ECC, symSize: 0x64 }
  - { offset: 0xA490, size: 0x8, addend: 0x0, symName: __ZN4Pika14stringToDoubleINS_8STLValueINSt3__112basic_stringIcNS2_11char_traitsIcEENS2_9allocatorIcEEEEEEEEbRKT_Rd, symObjAddr: 0x13C98, symBinAddr: 0x100014ECC, symSize: 0x64 }
  - { offset: 0xA673, size: 0x8, addend: 0x0, symName: __ZN4Pika6moduloEdd, symObjAddr: 0x7BA8, symBinAddr: 0x10000908C, symSize: 0x4 }
  - { offset: 0xA6B0, size: 0x8, addend: 0x0, symName: __ZN4Pika6bitXorEmm, symObjAddr: 0x7E28, symBinAddr: 0x10000930C, symSize: 0x8 }
  - { offset: 0xA6ED, size: 0x8, addend: 0x0, symName: __ZN4Pika9shiftLeftEmi, symObjAddr: 0x7EA4, symBinAddr: 0x100009388, symSize: 0x8 }
  - { offset: 0xA72A, size: 0x8, addend: 0x0, symName: __ZN4Pika10shiftRightEmi, symObjAddr: 0x7F20, symBinAddr: 0x100009404, symSize: 0x8 }
  - { offset: 0xA767, size: 0x8, addend: 0x0, symName: __ZN4Pika6bitAndEmm, symObjAddr: 0x8710, symBinAddr: 0x100009BF4, symSize: 0x8 }
  - { offset: 0xA7A4, size: 0x8, addend: 0x0, symName: __ZN4Pika5bitOrEmm, symObjAddr: 0x8718, symBinAddr: 0x100009BFC, symSize: 0x8 }
  - { offset: 0xA816, size: 0x8, addend: 0x0, symName: __ZN4Pika14doubleToStringINSt3__112basic_stringIcNS1_11char_traitsIcEENS1_9allocatorIcEEEEEET_di, symObjAddr: 0xA8A0, symBinAddr: 0x10000BD44, symSize: 0x4E4 }
  - { offset: 0xB296, size: 0x8, addend: 0x0, symName: __ZN4Pika11intToStringINSt3__112basic_stringIcNS1_11char_traitsIcEENS1_9allocatorIcEEEEiEET_T0_ii, symObjAddr: 0xCF88, symBinAddr: 0x10000E42C, symSize: 0xFC }
  - { offset: 0xB3FB, size: 0x8, addend: 0x0, symName: __ZN4Pika11intToStringINSt3__112basic_stringIcNS1_11char_traitsIcEENS1_9allocatorIcEEEEmEET_T0_ii, symObjAddr: 0xD084, symBinAddr: 0x10000E528, symSize: 0xEC }
  - { offset: 0xB52D, size: 0x8, addend: 0x0, symName: __ZN4Pika11intToStringIN8QStrings7QStringIcLm52EEEhEET_T0_ii, symObjAddr: 0x190F8, symBinAddr: 0x100019D94, symSize: 0xE8 }
  - { offset: 0xB66A, size: 0x8, addend: 0x0, symName: __ZN4Pika11intToStringIN8QStrings7QStringIcLm52EEEiEET_T0_ii, symObjAddr: 0x10454, symBinAddr: 0x1000118F8, symSize: 0x100 }
  - { offset: 0xB781, size: 0x8, addend: 0x0, symName: __ZN4Pika11intToStringIN8QStrings7QStringIcLm52EEElEET_T0_ii, symObjAddr: 0x1E904, symBinAddr: 0x10001F5A0, symSize: 0x104 }
  - { offset: 0xB898, size: 0x8, addend: 0x0, symName: __ZN4Pika11intToStringIN8QStrings7QStringIcLm52EEEmEET_T0_ii, symObjAddr: 0x130B0, symBinAddr: 0x100014388, symSize: 0xF0 }
  - { offset: 0xBD44, size: 0x8, addend: 0x0, symName: __ZN4Pika8STLValueINSt3__112basic_stringIcNS1_11char_traitsIcEENS1_9allocatorIcEEEEEC2Ed, symObjAddr: 0x13FE8, symBinAddr: 0x100014F30, symSize: 0x88 }
  - { offset: 0xBDEF, size: 0x8, addend: 0x0, symName: __ZN4Pika14doubleToStringIN8QStrings7QStringIcLm52EEEEET_di, symObjAddr: 0x1E4A0, symBinAddr: 0x10001F13C, symSize: 0x464 }
  - { offset: 0xC312, size: 0x8, addend: 0x0, symName: __ZN4Pika14stringToDoubleINS_8STLValueIN8QStrings7QStringIcLm52EEEEEEEbRKT_Rd, symObjAddr: 0x1DE5C, symBinAddr: 0x10001EAF8, symSize: 0x78 }
  - { offset: 0xC413, size: 0x8, addend: 0x0, symName: __ZN4Pika14stringToDoubleINS_8STLValueIN8QStrings7QStringIcLm52EEEEEEEdRNT_14const_iteratorERKS7_, symObjAddr: 0x1DED4, symBinAddr: 0x10001EB70, symSize: 0x3B8 }
  - { offset: 0xC426, size: 0x8, addend: 0x0, symName: __ZN4Pika14stringToDoubleINS_8STLValueIN8QStrings7QStringIcLm52EEEEEEEdRNT_14const_iteratorERKS7_, symObjAddr: 0x1DED4, symBinAddr: 0x10001EB70, symSize: 0x3B8 }
  - { offset: 0xC96C, size: 0x8, addend: 0x0, symName: __ZNK8QStrings7QStringIcLm52EE9_iteratorIKcKS1_EixEl, symObjAddr: 0x1E28C, symBinAddr: 0x10001EF28, symSize: 0x38 }
  - { offset: 0xC97F, size: 0x8, addend: 0x0, symName: __ZN4Pika12stringToLongINS_8STLValueIN8QStrings7QStringIcLm52EEEEEEElRNT_14const_iteratorERKS7_, symObjAddr: 0x1E2C4, symBinAddr: 0x10001EF60, symSize: 0x184 }
  - { offset: 0xCB8B, size: 0x8, addend: 0x0, symName: __ZN4Pika8STLValueIN8QStrings7QStringIcLm52EEEEC2Ed, symObjAddr: 0x1E448, symBinAddr: 0x10001F0E4, symSize: 0x58 }
  - { offset: 0xCF87, size: 0x8, addend: 0x0, symName: __ZN4Pika9hexToLongIN8QStrings7QStringIcLm52EEEEEmRNT_14const_iteratorERKS5_, symObjAddr: 0x2408C, symBinAddr: 0x100024D28, symSize: 0x138 }
  - { offset: 0xD279, size: 0x8, addend: 0x0, symName: __ZN4Pika8STLValueIN8QStrings7QStringIcLm52EEEEC2El, symObjAddr: 0x24700, symBinAddr: 0x100024E60, symSize: 0x60 }
  - { offset: 0x1D92E, size: 0x8, addend: 0x0, symName: __ZNSt3__124__put_character_sequenceB8ne180100IcNS_11char_traitsIcEEEERNS_13basic_ostreamIT_T0_EES7_PKS4_m, symObjAddr: 0x17338, symBinAddr: 0x100017FE8, symSize: 0x168 }
  - { offset: 0x23166, size: 0x8, addend: 0x0, symName: __ZNSt3__1plB8ne180100IcNS_11char_traitsIcEENS_9allocatorIcEEEENS_12basic_stringIT_T0_T1_EERKS9_SB_, symObjAddr: 0x12B8, symBinAddr: 0x10000279C, symSize: 0xC8 }
  - { offset: 0x2484A, size: 0x8, addend: 0x0, symName: __ZNSt3__1plB8ne180100IcNS_11char_traitsIcEENS_9allocatorIcEEEENS_12basic_stringIT_T0_T1_EERKS9_S6_, symObjAddr: 0x16548, symBinAddr: 0x100017490, symSize: 0x90 }
  - { offset: 0x25994, size: 0x8, addend: 0x0, symName: __ZNSt3__17getlineB8ne180100IcNS_11char_traitsIcEENS_9allocatorIcEEEERNS_13basic_istreamIT_T0_EES9_RNS_12basic_stringIS6_S7_T1_EES6_, symObjAddr: 0x175DC, symBinAddr: 0x10001828C, symSize: 0x184 }
  - { offset: 0x266C1, size: 0x8, addend: 0x0, symName: __ZNSt3__14endlB8ne180100IcNS_11char_traitsIcEEEERNS_13basic_ostreamIT_T0_EES7_, symObjAddr: 0xCB34, symBinAddr: 0x10000DFD8, symSize: 0x94 }
  - { offset: 0x26B54, size: 0x8, addend: 0x0, symName: __ZNSt3__113__search_implB8ne180100INS_11__wrap_iterIPKcEES4_S4_S4_NS_10__equal_toENS_10__identityES6_EENS_4pairIT_S8_EES8_T0_T1_T2_RT3_RT4_RT5_PNS_9enable_ifIXaasr37__has_random_access_iterator_categoryIS8_EE5valuesr37__has_random_access_iterator_categoryISB_EE5valueEvE4typeE, symObjAddr: 0x17934, symBinAddr: 0x1000185D0, symSize: 0x7C }
  - { offset: 0x26C04, size: 0x8, addend: 0x0, symName: __ZNSt3__113__search_implB8ne180100INS_11__wrap_iterIPKcEES4_S4_S4_NS_10__equal_toENS_10__identityES6_EENS_4pairIT_S8_EES8_T0_T1_T2_RT3_RT4_RT5_PNS_9enable_ifIXaasr37__has_random_access_iterator_categoryIS8_EE5valuesr37__has_random_access_iterator_categoryISB_EE5valueEvE4typeE, symObjAddr: 0x17934, symBinAddr: 0x1000185D0, symSize: 0x7C }
  - { offset: 0x26FD4, size: 0x8, addend: 0x0, symName: __ZNSt3__120__throw_length_errorB8ne180100EPKc, symObjAddr: 0x10E14, symBinAddr: 0x1000122B8, symSize: 0x50 }
  - { offset: 0x270D6, size: 0x8, addend: 0x0, symName: __ZNSt3__127__tree_balance_after_insertB8ne180100IPNS_16__tree_node_baseIPvEEEEvT_S5_, symObjAddr: 0x11E48, symBinAddr: 0x1000132EC, symSize: 0x198 }
  - { offset: 0x2745D, size: 0x8, addend: 0x0, symName: __ZNSt3__113__tree_removeB8ne180100IPNS_16__tree_node_baseIPvEEEEvT_S5_, symObjAddr: 0x12134, symBinAddr: 0x1000135D8, symSize: 0x384 }
  - { offset: 0x27957, size: 0x8, addend: 0x0, symName: __ZNSt3__119__allocate_at_leastB8ne180100INS_9allocatorINS_4pairIN8QStrings7QStringIcLm52EEEN4Pika8STLValueIS5_EEEEEEEENS_19__allocation_resultINS_16allocator_traitsIT_E7pointerEEERSD_m, symObjAddr: 0x12674, symBinAddr: 0x100013B18, symSize: 0x44 }
  - { offset: 0x27A01, size: 0x8, addend: 0x0, symName: __ZNSt3__142__uninitialized_allocator_move_if_noexceptB8ne180100INS_9allocatorINS_4pairIN8QStrings7QStringIcLm52EEEN4Pika8STLValueIS5_EEEEEENS_16reverse_iteratorIPS9_EESD_SD_EET2_RT_T0_T1_SE_, symObjAddr: 0x126B8, symBinAddr: 0x100013B5C, symSize: 0x6C }
  - { offset: 0x27A5B, size: 0x8, addend: 0x0, symName: __ZNSt3__142__uninitialized_allocator_move_if_noexceptB8ne180100INS_9allocatorINS_4pairIN8QStrings7QStringIcLm52EEEN4Pika8STLValueIS5_EEEEEENS_16reverse_iteratorIPS9_EESD_SD_EET2_RT_T0_T1_SE_, symObjAddr: 0x126B8, symBinAddr: 0x100013B5C, symSize: 0x6C }
  - { offset: 0x27D4E, size: 0x8, addend: 0x0, symName: __ZNSt3__112__destroy_atB8ne180100INS_4pairIKNS_12basic_stringIcNS_11char_traitsIcEENS_9allocatorIcEEEEN4Pika8STLValueIS7_EEEELi0EEEvPT_, symObjAddr: 0x13954, symBinAddr: 0x100014C2C, symSize: 0x44 }
  - { offset: 0x28181, size: 0x8, addend: 0x0, symName: __ZNSt3__142__uninitialized_allocator_move_if_noexceptB8ne180100INS_9allocatorINS_4pairINS_12basic_stringIcNS_11char_traitsIcEENS1_IcEEEEN4Pika8STLValueIS7_EEEEEENS_16reverse_iteratorIPSB_EESF_SF_EET2_RT_T0_T1_SG_, symObjAddr: 0x16BF8, symBinAddr: 0x100017A24, symSize: 0xA4 }
  - { offset: 0x281DB, size: 0x8, addend: 0x0, symName: __ZNSt3__142__uninitialized_allocator_move_if_noexceptB8ne180100INS_9allocatorINS_4pairINS_12basic_stringIcNS_11char_traitsIcEENS1_IcEEEEN4Pika8STLValueIS7_EEEEEENS_16reverse_iteratorIPSB_EESF_SF_EET2_RT_T0_T1_SG_, symObjAddr: 0x16BF8, symBinAddr: 0x100017A24, symSize: 0xA4 }
  - { offset: 0x284C5, size: 0x8, addend: 0x0, symName: __ZNSt3__116__pad_and_outputB8ne180100IcNS_11char_traitsIcEEEENS_19ostreambuf_iteratorIT_T0_EES6_PKS4_S8_S8_RNS_8ios_baseES4_, symObjAddr: 0x174A0, symBinAddr: 0x100018150, symSize: 0x13C }
  - { offset: 0x289E1, size: 0x8, addend: 0x0, symName: __ZNSt3__119__allocate_at_leastB8ne180100INS_9allocatorIN4Pika8STLValueINS_12basic_stringIcNS_11char_traitsIcEENS1_IcEEEEEEEEEENS_19__allocation_resultINS_16allocator_traitsIT_E7pointerEEERSD_m, symObjAddr: 0x17864, symBinAddr: 0x100018500, symSize: 0x44 }
  - { offset: 0x28A8B, size: 0x8, addend: 0x0, symName: __ZNSt3__16vectorIN4Pika8STLValueINS_12basic_stringIcNS_11char_traitsIcEENS_9allocatorIcEEEEEENS6_IS9_EEE16__destroy_vectorclB8ne180100Ev, symObjAddr: 0x178A8, symBinAddr: 0x100018544, symSize: 0x40 }
  - { offset: 0x28C5F, size: 0x8, addend: 0x0, symName: __ZNSt3__118__find_first_of_ceB8ne180100IN8QStrings7QStringIcLm52EE9_iteratorIKcKS3_EES7_NS_10__equal_toEEET_S9_S9_T0_SA_OT1_, symObjAddr: 0x28CC8, symBinAddr: 0x100029428, symSize: 0x98 }
  - { offset: 0x28D6F, size: 0x8, addend: 0x0, symName: __ZN4Pika6ScriptI19QuickerScriptConfigE12UnaryFunctorINSt3__125pointer_to_unary_functionIRNS2_5FrameEvEES7_vE8pikaCallES7_, symObjAddr: 0x28D60, symBinAddr: 0x1000294C0, symSize: 0x48 }
  - { offset: 0x28F73, size: 0x8, addend: 0x0, symName: __ZNSt3__19__reverseB8ne180100INS_17_ClassicAlgPolicyEN8QStrings7QStringIcLm52EE9_iteratorIcS4_EES6_EEvT0_T1_, symObjAddr: 0x29934, symBinAddr: 0x100029FEC, symSize: 0x70 }
  - { offset: 0x29129, size: 0x8, addend: 0x0, symName: __ZNSt3__113__search_implB8ne180100IN8QStrings7QStringIcLm52EE9_iteratorIKcKS3_EES7_S7_S7_NS_10__equal_toENS_10__identityES9_EENS_4pairIT_SB_EESB_T0_T1_T2_RT3_RT4_RT5_PNS_9enable_ifIXaasr37__has_random_access_iterator_categoryISB_EE5valuesr37__has_random_access_iterator_categoryISE_EE5valueEvE4typeE, symObjAddr: 0x29B4C, symBinAddr: 0x10002A204, symSize: 0x74 }
  - { offset: 0x292AC, size: 0x8, addend: 0x0, symName: __ZNSt3__127__search_random_access_implB8ne180100INS_17_ClassicAlgPolicyEN8QStrings7QStringIcLm52EE9_iteratorIKcKS4_EES8_S8_S8_NS_10__equal_toENS_10__identityESA_llEENS_4pairIT0_SC_EESC_T1_T2_T3_RT4_RT5_RT6_T7_T8_, symObjAddr: 0x29BC0, symBinAddr: 0x10002A278, symSize: 0x110 }
  - { offset: 0x2934A, size: 0x8, addend: 0x0, symName: __ZNSt3__111__find_implB8ne180100IN8QStrings7QStringIcLm52EE9_iteratorIKcKS3_EES7_cNS_10__identityEEET_S9_T0_RKT1_RT2_, symObjAddr: 0x1D92C, symBinAddr: 0x10001E5C8, symSize: 0x68 }
  - { offset: 0x293E5, size: 0x8, addend: 0x0, symName: __ZN4Pika6ScriptI19QuickerScriptConfigE5Frame14registerNativeERKN8QStrings7QStringIcLm52EEEPNS2_6NativeE, symObjAddr: 0x1D994, symBinAddr: 0x10001E630, symSize: 0x260 }
  - { offset: 0x29729, size: 0x8, addend: 0x0, symName: __ZNSt3__118__find_first_of_ceB8ne180100IN8QStrings7QStringIcLm52EE9_iteratorIKcKS3_EEPS5_NS_10__equal_toEEET_SA_SA_T0_SB_OT1_, symObjAddr: 0x22EDC, symBinAddr: 0x100023B78, symSize: 0x78 }
  - { offset: 0x297EE, size: 0x8, addend: 0x0, symName: __ZNSt3__113__search_implB8ne180100IN8QStrings7QStringIcLm52EE9_iteratorIKcKS3_EES7_PS5_S8_NS_10__equal_toENS_10__identityESA_EENS_4pairIT_SC_EESC_T0_T1_T2_RT3_RT4_RT5_PNS_9enable_ifIXaasr37__has_random_access_iterator_categoryISC_EE5valuesr37__has_random_access_iterator_categoryISF_EE5valueEvE4typeE, symObjAddr: 0x22F54, symBinAddr: 0x100023BF0, symSize: 0x60 }
  - { offset: 0x29814, size: 0x8, addend: 0x0, symName: __ZNSt3__113__search_implB8ne180100IN8QStrings7QStringIcLm52EE9_iteratorIKcKS3_EES7_PS5_S8_NS_10__equal_toENS_10__identityESA_EENS_4pairIT_SC_EESC_T0_T1_T2_RT3_RT4_RT5_PNS_9enable_ifIXaasr37__has_random_access_iterator_categoryISC_EE5valuesr37__has_random_access_iterator_categoryISF_EE5valueEvE4typeE, symObjAddr: 0x22F54, symBinAddr: 0x100023BF0, symSize: 0x60 }
  - { offset: 0x2997E, size: 0x8, addend: 0x0, symName: __ZNSt3__127__search_random_access_implB8ne180100INS_17_ClassicAlgPolicyEN8QStrings7QStringIcLm52EE9_iteratorIKcKS4_EES8_PS6_S9_NS_10__equal_toENS_10__identityESB_llEENS_4pairIT0_SD_EESD_T1_T2_T3_RT4_RT5_RT6_T7_T8_, symObjAddr: 0x22FB4, symBinAddr: 0x100023C50, symSize: 0xD0 }
  - { offset: 0x29C9C, size: 0x8, addend: 0x0, symName: __ZNSt3__127__search_random_access_implB8ne180100INS_17_ClassicAlgPolicyEN8QStrings7QStringIcLm52EE9_iteratorIKcKS4_EES8_PS6_S9_NS_10__equal_toENS_10__identityESB_llEENS_4pairIT0_SD_EESD_T1_T2_T3_RT4_RT5_RT6_T7_T8_, symObjAddr: 0x22FB4, symBinAddr: 0x100023C50, symSize: 0xD0 }
  - { offset: 0x29F42, size: 0x8, addend: 0x0, symName: __ZNK4Pika8STLValueIN8QStrings7QStringIcLm52EEEEcvbEv, symObjAddr: 0x23084, symBinAddr: 0x100023D20, symSize: 0x28C }
  - { offset: 0x2A078, size: 0x8, addend: 0x0, symName: __ZNSt3__16vectorIN4Pika8STLValueIN8QStrings7QStringIcLm52EEEEENS_9allocatorIS6_EEE16__destroy_vectorclB8ne180100Ev, symObjAddr: 0x2902C, symBinAddr: 0x1000296E4, symSize: 0x70 }
  - { offset: 0x2A104, size: 0x8, addend: 0x0, symName: __ZNSt3__127__search_random_access_implB8ne180100INS_17_ClassicAlgPolicyEN8QStrings7QStringIcLm52EE9_iteratorIKcKS4_EES8_S8_S8_NS_10__equal_toENS_10__identityESA_llEENS_4pairIT0_SC_EESC_T1_T2_T3_RT4_RT5_RT6_T7_T8_, symObjAddr: 0x29BC0, symBinAddr: 0x10002A278, symSize: 0x110 }
  - { offset: 0x2A42B, size: 0x8, addend: 0x0, symName: __ZN4Pika6ScriptI19QuickerScriptConfigE12UnaryFunctorINSt3__125pointer_to_unary_functionIRKN8QStrings7QStringIcLm52EEEiEESA_iE8pikaCallERNS2_5FrameE, symObjAddr: 0x29CD0, symBinAddr: 0x10002A388, symSize: 0x68 }
  - { offset: 0x2B3BD, size: 0x8, addend: 0x0, symName: __ZSt28__throw_bad_array_new_lengthB8ne180100v, symObjAddr: 0x10E88, symBinAddr: 0x10001232C, symSize: 0x28 }
  - { offset: 0x2B940, size: 0x8, addend: 0x0, symName: __ZN4Pika6ScriptINS_9StdConfigEE5Frame5whiteERNSt3__111__wrap_iterIPKcEERKS8_, symObjAddr: 0x4218, symBinAddr: 0x1000056FC, symSize: 0x1FC }
  - { offset: 0x2B966, size: 0x8, addend: 0x0, symName: __ZZN4Pika6ScriptINS_9StdConfigEE5Frame5whiteERNSt3__111__wrap_iterIPKcEERKS8_E9END_CHARS, symObjAddr: 0x30BCC, symBinAddr: 0x10002F518, symSize: 0x0 }
  - { offset: 0x2B97C, size: 0x8, addend: 0x0, symName: __ZZN4Pika6ScriptINS_9StdConfigEE5Frame5whiteERNSt3__111__wrap_iterIPKcEERKS8_E9END_CHARS_0, symObjAddr: 0x30BCE, symBinAddr: 0x10002F51A, symSize: 0x0 }
  - { offset: 0x2C0C6, size: 0x8, addend: 0x0, symName: _BUILT_IN_DEBUG, symObjAddr: 0x49AF0, symBinAddr: 0x10004C000, symSize: 0x0 }
  - { offset: 0x2C0DC, size: 0x8, addend: 0x0, symName: _BUILT_IN_HELP, symObjAddr: 0x49AF8, symBinAddr: 0x10004C008, symSize: 0x0 }
  - { offset: 0x2C0F2, size: 0x8, addend: 0x0, symName: _BUILT_IN_INTERACTIVE, symObjAddr: 0x49B00, symBinAddr: 0x10004C010, symSize: 0x0 }
  - { offset: 0x2C108, size: 0x8, addend: 0x0, symName: _BUILT_IN_STDLIB, symObjAddr: 0x49B08, symBinAddr: 0x10004C018, symSize: 0x0 }
  - { offset: 0x2C11E, size: 0x8, addend: 0x0, symName: _BUILT_IN_USAGE, symObjAddr: 0x49B10, symBinAddr: 0x10004C020, symSize: 0x0 }
  - { offset: 0x2C134, size: 0x8, addend: 0x0, symName: _BUILT_IN_DEFAULT, symObjAddr: 0x49B18, symBinAddr: 0x10004C028, symSize: 0x0 }
  - { offset: 0x2C14A, size: 0x8, addend: 0x0, symName: _BUILT_IN_DIRECT, symObjAddr: 0x49B20, symBinAddr: 0x10004C030, symSize: 0x0 }
  - { offset: 0x2C160, size: 0x8, addend: 0x0, symName: _BUILT_IN_FILES, symObjAddr: 0x2C9400, symBinAddr: 0x10004C090, symSize: 0x0 }
  - { offset: 0x2D033, size: 0x8, addend: 0x0, symName: __ZN8QStrings8unitTestEv, symObjAddr: 0xDE00, symBinAddr: 0x10000F2A4, symSize: 0xC90 }
  - { offset: 0x2F4EE, size: 0x8, addend: 0x0, symName: _pikaCmdDir, symObjAddr: 0x2C9520, symBinAddr: 0x10004C1B0, symSize: 0x0 }
  - { offset: 0x2F4F8, size: 0x8, addend: 0x0, symName: __ZN8QStrings7QStringIcLm52EE17obtainDummyBufferEv, symObjAddr: 0x10EB0, symBinAddr: 0x100012354, symSize: 0x74 }
  - { offset: 0x2F51A, size: 0x8, addend: 0x0, symName: __ZZN8QStrings7QStringIcLm52EE17obtainDummyBufferEvE5dummy, symObjAddr: 0x49B28, symBinAddr: 0x10004C038, symSize: 0x0 }
  - { offset: 0x2F8E9, size: 0x8, addend: 0x0, symName: __ZN4Pika6ScriptI19QuickerScriptConfigE5Frame5whiteERN8QStrings7QStringIcLm52EE9_iteratorIKcKS6_EERKSA_, symObjAddr: 0x1FE04, symBinAddr: 0x100020AA0, symSize: 0x278 }
  - { offset: 0x2F90F, size: 0x8, addend: 0x0, symName: __ZZN4Pika6ScriptI19QuickerScriptConfigE5Frame5whiteERN8QStrings7QStringIcLm52EE9_iteratorIKcKS6_EERKSA_E9END_CHARS, symObjAddr: 0x31A88, symBinAddr: 0x1000303D4, symSize: 0x0 }
  - { offset: 0x2F925, size: 0x8, addend: 0x0, symName: __ZZN4Pika6ScriptI19QuickerScriptConfigE5Frame5whiteERN8QStrings7QStringIcLm52EE9_iteratorIKcKS6_EERKSA_E9END_CHARS_0, symObjAddr: 0x31A8A, symBinAddr: 0x1000303D6, symSize: 0x0 }
  - { offset: 0x30EDC, size: 0x8, addend: 0x0, symName: __ZNSt3__16vectorINS_4pairIN8QStrings7QStringIcLm52EEEN4Pika8STLValueIS4_EEEENS_9allocatorIS8_EEE26__swap_out_circular_bufferERNS_14__split_bufferIS8_RSA_EE, symObjAddr: 0x125EC, symBinAddr: 0x100013A90, symSize: 0x74 }
  - { offset: 0x31018, size: 0x8, addend: 0x0, symName: __ZNSt3__16vectorINS_4pairINS_12basic_stringIcNS_11char_traitsIcEENS_9allocatorIcEEEEN4Pika8STLValueIS7_EEEENS5_ISB_EEE26__swap_out_circular_bufferERNS_14__split_bufferISB_RSC_EE, symObjAddr: 0x16B2C, symBinAddr: 0x1000179B0, symSize: 0x74 }
  - { offset: 0x31B09, size: 0x8, addend: 0x0, symName: __ZNSt3__16vectorIN4Pika8STLValueIN8QStrings7QStringIcLm52EEEEENS_9allocatorIS6_EEE26__swap_out_circular_bufferERNS_14__split_bufferIS6_RS8_EE, symObjAddr: 0x2A138, symBinAddr: 0x10002A7F0, symSize: 0x6C }
  - { offset: 0x31E7D, size: 0x8, addend: 0x0, symName: __ZN4Pika6ScriptINS_9StdConfigEE6Native8pikaCallERNS2_5FrameE, symObjAddr: 0x0, symBinAddr: 0x100001564, symSize: 0x98 }
  - { offset: 0x3205E, size: 0x8, addend: 0x0, symName: __ZNSt3__112basic_stringIcNS_11char_traitsIcEENS_9allocatorIcEEEC2B8ne180100ILi0EEEPKc, symObjAddr: 0x13224, symBinAddr: 0x1000144FC, symSize: 0xB0 }
  - { offset: 0x32407, size: 0x8, addend: 0x0, symName: __ZN4Pika9ExceptionINSt3__112basic_stringIcNS1_11char_traitsIcEENS1_9allocatorIcEEEEEC2ERKS7_, symObjAddr: 0x132D4, symBinAddr: 0x1000145AC, symSize: 0x70 }
  - { offset: 0x3241F, size: 0x8, addend: 0x0, symName: __ZN4Pika9ExceptionINSt3__112basic_stringIcNS1_11char_traitsIcEENS1_9allocatorIcEEEEEC2ERKS7_, symObjAddr: 0x132D4, symBinAddr: 0x1000145AC, symSize: 0x70 }
  - { offset: 0x32594, size: 0x8, addend: 0x0, symName: __ZN4Pika9ExceptionINSt3__112basic_stringIcNS1_11char_traitsIcEENS1_9allocatorIcEEEEEC1ERKS7_, symObjAddr: 0x98, symBinAddr: 0x1000015FC, symSize: 0x4 }
  - { offset: 0x325BD, size: 0x8, addend: 0x0, symName: __ZN4Pika9ExceptionINSt3__112basic_stringIcNS1_11char_traitsIcEENS1_9allocatorIcEEEEEC1ERKS7_, symObjAddr: 0x98, symBinAddr: 0x1000015FC, symSize: 0x4 }
  - { offset: 0x325D7, size: 0x8, addend: 0x0, symName: __ZN4Pika9ExceptionINSt3__112basic_stringIcNS1_11char_traitsIcEENS1_9allocatorIcEEEEED1Ev, symObjAddr: 0x9C, symBinAddr: 0x100001600, symSize: 0x4 }
  - { offset: 0x325F9, size: 0x8, addend: 0x0, symName: __ZN4Pika9ExceptionINSt3__112basic_stringIcNS1_11char_traitsIcEENS1_9allocatorIcEEEEED1Ev, symObjAddr: 0x9C, symBinAddr: 0x100001600, symSize: 0x4 }
  - { offset: 0x3260C, size: 0x8, addend: 0x0, symName: __ZN4Pika9ExceptionINSt3__112basic_stringIcNS1_11char_traitsIcEENS1_9allocatorIcEEEEED2Ev, symObjAddr: 0x13444, symBinAddr: 0x10001471C, symSize: 0x4C }
  - { offset: 0x32897, size: 0x8, addend: 0x0, symName: __ZN4Pika6ScriptINS_9StdConfigEE6NativeD2Ev, symObjAddr: 0xB0, symBinAddr: 0x100001614, symSize: 0x4 }
  - { offset: 0x328C2, size: 0x8, addend: 0x0, symName: __ZN4Pika6ScriptINS_9StdConfigEE6NativeD1Ev, symObjAddr: 0xB4, symBinAddr: 0x100001618, symSize: 0x4 }
  - { offset: 0x328ED, size: 0x8, addend: 0x0, symName: __ZN4Pika6ScriptINS_9StdConfigEE6NativeD0Ev, symObjAddr: 0xB8, symBinAddr: 0x10000161C, symSize: 0x4 }
  - { offset: 0x3291A, size: 0x8, addend: 0x0, symName: __ZN4Pika6ScriptINS_9StdConfigEE6NativeD0Ev, symObjAddr: 0xB8, symBinAddr: 0x10000161C, symSize: 0x4 }
  - { offset: 0x32A71, size: 0x8, addend: 0x0, symName: __ZN4Pika6ScriptINS_9StdConfigEE4RootC2ERNS2_9VariablesE, symObjAddr: 0xBC, symBinAddr: 0x100001620, symSize: 0x74 }
  - { offset: 0x32C0B, size: 0x8, addend: 0x0, symName: __ZN4Pika6ScriptINS_9StdConfigEE5FrameC2ERNS2_9VariablesERNS2_4RootEPS3_, symObjAddr: 0x130, symBinAddr: 0x100001694, symSize: 0x58 }
  - { offset: 0x32C88, size: 0x8, addend: 0x0, symName: __ZN4Pika6ScriptINS_9StdConfigEE4Root13generateLabelEv, symObjAddr: 0x83C, symBinAddr: 0x100001D2C, symSize: 0x94 }
  - { offset: 0x32D09, size: 0x8, addend: 0x0, symName: __ZN4Pika6ScriptINS_9StdConfigEE5FrameD2Ev, symObjAddr: 0x188, symBinAddr: 0x1000016EC, symSize: 0x3C }
  - { offset: 0x33098, size: 0x8, addend: 0x0, symName: __ZN4Pika6ScriptINS_9StdConfigEE4Root5traceERNS2_5FrameERKNSt3__112basic_stringIcNS6_11char_traitsIcEENS6_9allocatorIcEEEEmbRKNS_8STLValueISC_EENS_10PrecedenceEb, symObjAddr: 0x238, symBinAddr: 0x100001728, symSize: 0x2A4 }
  - { offset: 0x33F1C, size: 0x8, addend: 0x0, symName: __ZNSt3__112basic_stringIcNS_11char_traitsIcEENS_9allocatorIcEEE25__init_copy_ctor_externalEPKcm, symObjAddr: 0x10D74, symBinAddr: 0x100012218, symSize: 0x8C }
  - { offset: 0x34292, size: 0x8, addend: 0x0, symName: __ZNKSt3__112basic_stringIcNS_11char_traitsIcEENS_9allocatorIcEEE20__throw_length_errorB8ne180100Ev, symObjAddr: 0x10E00, symBinAddr: 0x1000122A4, symSize: 0x14 }
  - { offset: 0x342A4, size: 0x8, addend: 0x0, symName: __ZN4Pika8STLValueINSt3__112basic_stringIcNS1_11char_traitsIcEENS1_9allocatorIcEEEEEC2Em, symObjAddr: 0x13490, symBinAddr: 0x100014768, symSize: 0x90 }
  - { offset: 0x345C9, size: 0x8, addend: 0x0, symName: __ZN4Pika8STLValueINSt3__112basic_stringIcNS1_11char_traitsIcEENS1_9allocatorIcEEEEEC2Eb, symObjAddr: 0x13520, symBinAddr: 0x1000147F8, symSize: 0x9C }
  - { offset: 0x348F0, size: 0x8, addend: 0x0, symName: __ZN4Pika8STLValueINSt3__112basic_stringIcNS1_11char_traitsIcEENS1_9allocatorIcEEEEEC2Ei, symObjAddr: 0x135BC, symBinAddr: 0x100014894, symSize: 0x90 }
  - { offset: 0x34C0E, size: 0x8, addend: 0x0, symName: __ZN4Pika6ScriptINS_9StdConfigEE5Frame4callERKNSt3__112basic_stringIcNS4_11char_traitsIcEENS4_9allocatorIcEEEERKNS_8STLValueISA_EElPSF_, symObjAddr: 0x4DC, symBinAddr: 0x1000019CC, symSize: 0x32C }
  - { offset: 0x36406, size: 0x8, addend: 0x0, symName: __ZN4Pika8STLValueINSt3__112basic_stringIcNS1_11char_traitsIcEENS1_9allocatorIcEEEEEC2El, symObjAddr: 0x139E8, symBinAddr: 0x100014CC0, symSize: 0x90 }
  - { offset: 0x3672B, size: 0x8, addend: 0x0, symName: __ZNSt3__13mapIKNS_12basic_stringIcNS_11char_traitsIcEENS_9allocatorIcEEEEN4Pika8STLValueIS6_EENS_4lessIS7_EENS4_INS_4pairIS7_SA_EEEEEixERS7_, symObjAddr: 0x9E80, symBinAddr: 0x10000B364, symSize: 0x74 }
  - { offset: 0x3684B, size: 0x8, addend: 0x0, symName: __ZNK4Pika6ScriptINS_9StdConfigEE5Frame3getERKNSt3__112basic_stringIcNS4_11char_traitsIcEENS4_9allocatorIcEEEEb, symObjAddr: 0x930, symBinAddr: 0x100001E14, symSize: 0x20C }
  - { offset: 0x371B8, size: 0x8, addend: 0x0, symName: __ZN4Pika6ScriptINS_9StdConfigEE5Frame7executeERKNSt3__112basic_stringIcNS4_11char_traitsIcEENS4_9allocatorIcEEEE, symObjAddr: 0x18D0, symBinAddr: 0x100002DB4, symSize: 0x380 }
  - { offset: 0x380DE, size: 0x8, addend: 0x0, symName: __ZN4Pika6ScriptINS_9StdConfigEE12STLVariablesD2Ev, symObjAddr: 0x9D00, symBinAddr: 0x10000B1E4, symSize: 0xD0 }
  - { offset: 0x3847F, size: 0x8, addend: 0x0, symName: __ZN4Pika6ScriptINS_9StdConfigEE5Frame4callERKNSt3__112basic_stringIcNS4_11char_traitsIcEENS4_9allocatorIcEEEERKNS_8STLValueISA_EElPSF_.cold.1, symObjAddr: 0x2A278, symBinAddr: 0x10002B0CC, symSize: 0x28 }
  - { offset: 0x38497, size: 0x8, addend: 0x0, symName: __ZN4Pika6ScriptINS_9StdConfigEE4Root9setTracerENS_10PrecedenceERKNS_8STLValueINSt3__112basic_stringIcNS6_11char_traitsIcEENS6_9allocatorIcEEEEEE, symObjAddr: 0x808, symBinAddr: 0x100001CF8, symSize: 0x24 }
  - { offset: 0x38504, size: 0x8, addend: 0x0, symName: __ZNK4Pika6ScriptINS_9StdConfigEE4Root7doTraceENS_10PrecedenceE, symObjAddr: 0x82C, symBinAddr: 0x100001D1C, symSize: 0x10 }
  - { offset: 0x3855F, size: 0x8, addend: 0x0, symName: __ZNSt3__112basic_stringIcNS_11char_traitsIcEENS_9allocatorIcEEEC2B8ne180100EPKcm, symObjAddr: 0x1364C, symBinAddr: 0x100014924, symSize: 0xA8 }
  - { offset: 0x388BC, size: 0x8, addend: 0x0, symName: __ZN4Pika11intToStringINSt3__112basic_stringIcNS1_11char_traitsIcEENS1_9allocatorIcEEEEhEET_T0_ii, symObjAddr: 0x136F4, symBinAddr: 0x1000149CC, symSize: 0xE4 }
  - { offset: 0x388CE, size: 0x8, addend: 0x0, symName: __ZN4Pika6ScriptINS_9StdConfigEE9VariablesD1Ev, symObjAddr: 0x8D4, symBinAddr: 0x10002B0C4, symSize: 0x4 }
  - { offset: 0x388F9, size: 0x8, addend: 0x0, symName: __ZN4Pika6ScriptINS_9StdConfigEE9VariablesD0Ev, symObjAddr: 0x8D8, symBinAddr: 0x10002B0C8, symSize: 0x4 }
  - { offset: 0x38924, size: 0x8, addend: 0x0, symName: __ZN4Pika6ScriptINS_9StdConfigEE5FrameC1ERNS2_9VariablesERNS2_4RootEPS3_, symObjAddr: 0x8DC, symBinAddr: 0x100001DC0, symSize: 0x4 }
  - { offset: 0x3895B, size: 0x8, addend: 0x0, symName: __ZN4Pika6ScriptINS_9StdConfigEE5FrameC1ERNS2_9VariablesERNS2_4RootEPS3_, symObjAddr: 0x8DC, symBinAddr: 0x100001DC0, symSize: 0x4 }
  - { offset: 0x38983, size: 0x8, addend: 0x0, symName: __ZNK4Pika6ScriptINS_9StdConfigEE5Frame12getVariablesEv, symObjAddr: 0x8E0, symBinAddr: 0x100001DC4, symSize: 0x8 }
  - { offset: 0x389A5, size: 0x8, addend: 0x0, symName: __ZNK4Pika6ScriptINS_9StdConfigEE5Frame7getRootEv, symObjAddr: 0x8E8, symBinAddr: 0x100001DCC, symSize: 0x8 }
  - { offset: 0x389C7, size: 0x8, addend: 0x0, symName: __ZNK4Pika6ScriptINS_9StdConfigEE5Frame11getPreviousEv, symObjAddr: 0x8F0, symBinAddr: 0x100001DD4, symSize: 0x40 }
  - { offset: 0x38A80, size: 0x8, addend: 0x0, symName: __ZNK4Pika6ScriptINS_9StdConfigEE5Frame12resolveFrameERKNSt3__112basic_stringIcNS4_11char_traitsIcEENS4_9allocatorIcEEEE, symObjAddr: 0xB3C, symBinAddr: 0x100002020, symSize: 0x12C }
  - { offset: 0x3931E, size: 0x8, addend: 0x0, symName: __ZNK4Pika6ScriptINS_9StdConfigEE5Frame12resolveFrameERNSt3__111__wrap_iterIPKcEERKS8_, symObjAddr: 0x1380, symBinAddr: 0x100002864, symSize: 0x420 }
  - { offset: 0x3A4DD, size: 0x8, addend: 0x0, symName: __ZNSt3__112basic_stringIcNS_11char_traitsIcEENS_9allocatorIcEEE16__init_with_sizeB8ne180100INS_11__wrap_iterIPKcEESA_EEvT_T0_m, symObjAddr: 0x1385C, symBinAddr: 0x100014B34, symSize: 0xA4 }
  - { offset: 0x3A6E9, size: 0x8, addend: 0x0, symName: __ZNSt3__16__treeINS_12__value_typeIKNS_12basic_stringIcNS_11char_traitsIcEENS_9allocatorIcEEEEN4Pika8STLValueIS7_EEEENS_19__map_value_compareIS8_SC_NS_4lessIS8_EELb1EEENS5_ISC_EEE7destroyEPNS_11__tree_nodeISC_PvEE, symObjAddr: 0x13900, symBinAddr: 0x100014BD8, symSize: 0x54 }
  - { offset: 0x3A7AF, size: 0x8, addend: 0x0, symName: __ZNK4Pika6ScriptINS_9StdConfigEE5Frame11getOptionalERKNSt3__112basic_stringIcNS4_11char_traitsIcEENS4_9allocatorIcEEEERKNS_8STLValueISA_EE, symObjAddr: 0xF98, symBinAddr: 0x10000247C, symSize: 0xFC }
  - { offset: 0x3AF28, size: 0x8, addend: 0x0, symName: __ZN4Pika6ScriptINS_9StdConfigEE5Frame3setERKNSt3__112basic_stringIcNS4_11char_traitsIcEENS4_9allocatorIcEEEERKNS_8STLValueISA_EE, symObjAddr: 0x1094, symBinAddr: 0x100002578, symSize: 0x164 }
  - { offset: 0x3B60A, size: 0x8, addend: 0x0, symName: __ZNK4Pika6ScriptINS_9StdConfigEE5Frame9referenceERKNSt3__112basic_stringIcNS4_11char_traitsIcEENS4_9allocatorIcEEEE, symObjAddr: 0x11F8, symBinAddr: 0x1000026DC, symSize: 0xC0 }
  - { offset: 0x3BE00, size: 0x8, addend: 0x0, symName: __ZNSt3__112basic_stringIcNS_11char_traitsIcEENS_9allocatorIcEEEC2B8ne180100ENS_24__uninitialized_size_tagEmRKS4_, symObjAddr: 0x137D8, symBinAddr: 0x100014AB0, symSize: 0x84 }
  - { offset: 0x3BFD0, size: 0x8, addend: 0x0, symName: __ZNSt3__112basic_stringIcNS_11char_traitsIcEENS_9allocatorIcEEE16__init_with_sizeB8ne180100INS_11__wrap_iterIPKcEESA_EEvT_T0_m, symObjAddr: 0x1385C, symBinAddr: 0x100014B34, symSize: 0xA4 }
  - { offset: 0x3C096, size: 0x8, addend: 0x0, symName: __ZNK4Pika6ScriptINS_9StdConfigEE5Frame12resolveFrameERNSt3__111__wrap_iterIPKcEERKS8_.cold.1, symObjAddr: 0x2A2A0, symBinAddr: 0x10002B0F4, symSize: 0x28 }
  - { offset: 0x3C0AE, size: 0x8, addend: 0x0, symName: __ZN4Pika6ScriptINS_9StdConfigEE12STLVariables6assignERKNSt3__112basic_stringIcNS4_11char_traitsIcEENS4_9allocatorIcEEEERKNS_8STLValueISA_EE, symObjAddr: 0x17A0, symBinAddr: 0x100002C84, symSize: 0x30 }
  - { offset: 0x3C11B, size: 0x8, addend: 0x0, symName: __ZN4Pika11intToStringINSt3__112basic_stringIcNS1_11char_traitsIcEENS1_9allocatorIcEEEElEET_T0_ii.cold.3, symObjAddr: 0x2A310, symBinAddr: 0x10002B164, symSize: 0x24 }
  - { offset: 0x3C133, size: 0x8, addend: 0x0, symName: __ZN4Pika11intToStringINSt3__112basic_stringIcNS1_11char_traitsIcEENS1_9allocatorIcEEEElEET_T0_ii.cold.1, symObjAddr: 0x2A2C8, symBinAddr: 0x10002B11C, symSize: 0x24 }
  - { offset: 0x3C14B, size: 0x8, addend: 0x0, symName: __ZN4Pika11intToStringINSt3__112basic_stringIcNS1_11char_traitsIcEENS1_9allocatorIcEEEElEET_T0_ii.cold.2, symObjAddr: 0x2A2EC, symBinAddr: 0x10002B140, symSize: 0x24 }
  - { offset: 0x3C179, size: 0x8, addend: 0x0, symName: __ZN4Pika6ScriptINS_9StdConfigEE5Frame8evaluateENSt3__112basic_stringIcNS4_11char_traitsIcEENS4_9allocatorIcEEEE, symObjAddr: 0x1C90, symBinAddr: 0x100003174, symSize: 0x6D4 }
  - { offset: 0x3EF6A, size: 0x8, addend: 0x0, symName: __ZN4Pika6ScriptINS_9StdConfigEE5FrameD1Ev, symObjAddr: 0x1C50, symBinAddr: 0x100003134, symSize: 0x3C }
  - { offset: 0x3F0DA, size: 0x8, addend: 0x0, symName: __ZN4Pika6ScriptINS_9StdConfigEE12STLVariablesD1Ev, symObjAddr: 0x1C8C, symBinAddr: 0x100003170, symSize: 0x4 }
  - { offset: 0x3F0FC, size: 0x8, addend: 0x0, symName: __ZN4Pika6ScriptINS_9StdConfigEE12STLVariablesD1Ev, symObjAddr: 0x1C8C, symBinAddr: 0x100003170, symSize: 0x4 }
  - { offset: 0x3F3B9, size: 0x8, addend: 0x0, symName: __ZN4Pika6ScriptINS_9StdConfigEE5Frame4exprERNSt3__111__wrap_iterIPKcEERKS8_RNS4_4pairIbNS_8STLValueINS4_12basic_stringIcNS4_11char_traitsIcEENS4_9allocatorIcEEEEEEEEbbNS_10PrecedenceE, symObjAddr: 0x23A8, symBinAddr: 0x10000388C, symSize: 0x1CC }
  - { offset: 0x3F7B6, size: 0x8, addend: 0x0, symName: __ZN4Pika6ScriptINS_9StdConfigEE5Frame6rvalueERKNSt3__14pairIbNS_8STLValueINS4_12basic_stringIcNS4_11char_traitsIcEENS4_9allocatorIcEEEEEEEEb, symObjAddr: 0x2574, symBinAddr: 0x100003A58, symSize: 0x38 }
  - { offset: 0x3F9DF, size: 0x8, addend: 0x0, symName: __ZNSt3__112basic_stringIcNS_11char_traitsIcEENS_9allocatorIcEEEC1IN4Pika8STLValueIS5_EELi0EEERKT_, symObjAddr: 0x13B1C, symBinAddr: 0x100014D50, symSize: 0xBC }
  - { offset: 0x3FA01, size: 0x8, addend: 0x0, symName: __ZN4Pika6ScriptINS_9StdConfigEE5Frame4tickERKNSt3__111__wrap_iterIPKcEERKNS4_4pairIbNS_8STLValueINS4_12basic_stringIcNS4_11char_traitsIcEENS4_9allocatorIcEEEEEEEENS_10PrecedenceEb, symObjAddr: 0x2364, symBinAddr: 0x100003848, symSize: 0x44 }
  - { offset: 0x3FB00, size: 0x8, addend: 0x0, symName: __ZN4Pika6ScriptINS_9StdConfigEE5Frame3preERNSt3__111__wrap_iterIPKcEERKS8_RNS4_4pairIbNS_8STLValueINS4_12basic_stringIcNS4_11char_traitsIcEENS4_9allocatorIcEEEEEEEEb, symObjAddr: 0x2854, symBinAddr: 0x100003D38, symSize: 0x161C }
  - { offset: 0x44F0F, size: 0x8, addend: 0x0, symName: __ZN4Pika6ScriptINS_9StdConfigEE5Frame4postERNSt3__111__wrap_iterIPKcEERKS8_RNS4_4pairIbNS_8STLValueINS4_12basic_stringIcNS4_11char_traitsIcEENS4_9allocatorIcEEEEEEEEbNS_10PrecedenceE, symObjAddr: 0x5388, symBinAddr: 0x10000686C, symSize: 0x1770 }
  - { offset: 0x4CE8F, size: 0x8, addend: 0x0, symName: __ZN4Pika6ScriptINS_9StdConfigEE5Frame4exprERNSt3__111__wrap_iterIPKcEERKS8_RNS4_4pairIbNS_8STLValueINS4_12basic_stringIcNS4_11char_traitsIcEENS4_9allocatorIcEEEEEEEEbbNS_10PrecedenceE.cold.1, symObjAddr: 0x2A334, symBinAddr: 0x10002B188, symSize: 0x28 }
  - { offset: 0x4CEA7, size: 0x8, addend: 0x0, symName: __ZN4Pika6ScriptINS_9StdConfigEE5Frame5parseERKNSt3__111__wrap_iterIPKcEESA_b, symObjAddr: 0x25AC, symBinAddr: 0x100003A90, symSize: 0x1C8 }
  - { offset: 0x4D4FA, size: 0x8, addend: 0x0, symName: __ZN4Pika6ScriptINS_9StdConfigEE5Frame5tokenERNSt3__111__wrap_iterIPKcEERKS8_S7_, symObjAddr: 0x2774, symBinAddr: 0x100003C58, symSize: 0xE0 }
  - { offset: 0x4D66D, size: 0x8, addend: 0x0, symName: __ZN4Pika6ScriptINS_9StdConfigEE5Frame3preERNSt3__111__wrap_iterIPKcEERKS8_RNS4_4pairIbNS_8STLValueINS4_12basic_stringIcNS4_11char_traitsIcEENS4_9allocatorIcEEEEEEEEb, symObjAddr: 0x2854, symBinAddr: 0x100003D38, symSize: 0x161C }
  - { offset: 0x4D678, size: 0x8, addend: 0x0, symName: __ZN4Pika6ScriptINS_9StdConfigEE5Frame5parseERKNSt3__111__wrap_iterIPKcEESA_b.cold.1, symObjAddr: 0x2A35C, symBinAddr: 0x10002B1B0, symSize: 0x28 }
  - { offset: 0x4D690, size: 0x8, addend: 0x0, symName: __ZN4Pika6ScriptINS_9StdConfigEE5Frame5tokenERNSt3__111__wrap_iterIPKcEERKS8_S7_.cold.1, symObjAddr: 0x2A384, symBinAddr: 0x10002B1D8, symSize: 0x28 }
  - { offset: 0x4D6E4, size: 0x8, addend: 0x0, symName: __ZN4Pika8STLValueINSt3__112basic_stringIcNS1_11char_traitsIcEENS1_9allocatorIcEEEEEC2Ed, symObjAddr: 0x13FE8, symBinAddr: 0x100014F30, symSize: 0x88 }
  - { offset: 0x4DA06, size: 0x8, addend: 0x0, symName: __ZN4Pika6ScriptINS_9StdConfigEE5Frame6lvalueERKNSt3__14pairIbNS_8STLValueINS4_12basic_stringIcNS4_11char_traitsIcEENS4_9allocatorIcEEEEEEEE, symObjAddr: 0x4160, symBinAddr: 0x100005644, symSize: 0xB8 }
  - { offset: 0x4DBEC, size: 0x8, addend: 0x0, symName: __ZNK4Pika8STLValueINSt3__112basic_stringIcNS1_11char_traitsIcEENS1_9allocatorIcEEEEEcvlEv, symObjAddr: 0x4DE4, symBinAddr: 0x1000062C8, symSize: 0x1A0 }
  - { offset: 0x4E267, size: 0x8, addend: 0x0, symName: __ZNK4Pika8STLValueINSt3__112basic_stringIcNS1_11char_traitsIcEENS1_9allocatorIcEEEEEcvbEv, symObjAddr: 0x4414, symBinAddr: 0x1000058F8, symSize: 0x318 }
  - { offset: 0x4F36B, size: 0x8, addend: 0x0, symName: __ZN4Pika6ScriptINS_9StdConfigEE5Frame8termExprERNSt3__111__wrap_iterIPKcEERKS8_RNS4_4pairIbNS_8STLValueINS4_12basic_stringIcNS4_11char_traitsIcEENS4_9allocatorIcEEEEEEEEbbNS_10PrecedenceEc, symObjAddr: 0x472C, symBinAddr: 0x100005C10, symSize: 0x148 }
  - { offset: 0x4FA3C, size: 0x8, addend: 0x0, symName: __ZNK4Pika8STLValueINSt3__112basic_stringIcNS1_11char_traitsIcEENS1_9allocatorIcEEEEEcvdEv, symObjAddr: 0x4F84, symBinAddr: 0x100006468, symSize: 0x140 }
  - { offset: 0x4FF42, size: 0x8, addend: 0x0, symName: __ZN4Pika6ScriptINS_9StdConfigEE5Frame3preERNSt3__111__wrap_iterIPKcEERKS8_RNS4_4pairIbNS_8STLValueINS4_12basic_stringIcNS4_11char_traitsIcEENS4_9allocatorIcEEEEEEEEb.cold.1, symObjAddr: 0x2A3AC, symBinAddr: 0x10002B200, symSize: 0x28 }
  - { offset: 0x4FF5A, size: 0x8, addend: 0x0, symName: __ZN4Pika6ScriptINS_9StdConfigEE5Frame14registerNativeERKNSt3__112basic_stringIcNS4_11char_traitsIcEENS4_9allocatorIcEEEEPNS2_6NativeE, symObjAddr: 0x3E70, symBinAddr: 0x100005354, symSize: 0x2AC }
  - { offset: 0x5106D, size: 0x8, addend: 0x0, symName: __ZN4Pika6ScriptINS_9StdConfigEE5Frame16unregisterNativeERKNSt3__112basic_stringIcNS4_11char_traitsIcEENS4_9allocatorIcEEEE, symObjAddr: 0x411C, symBinAddr: 0x100005600, symSize: 0x8 }
  - { offset: 0x510C1, size: 0x8, addend: 0x0, symName: __ZN4Pika6ScriptINS_9StdConfigEE5FrameD0Ev, symObjAddr: 0x4124, symBinAddr: 0x100005608, symSize: 0x3C }
  - { offset: 0x51306, size: 0x8, addend: 0x0, symName: __ZN4Pika6ScriptINS_9StdConfigEE5Frame5whiteERNSt3__111__wrap_iterIPKcEERKS8_.cold.1, symObjAddr: 0x2A3D4, symBinAddr: 0x10002B228, symSize: 0x28 }
  - { offset: 0x5155D, size: 0x8, addend: 0x0, symName: __ZNKSt3__112basic_stringIcNS_11char_traitsIcEENS_9allocatorIcEEE20__throw_length_errorB8ne180100Ev, symObjAddr: 0x10E00, symBinAddr: 0x1000122A4, symSize: 0x14 }
  - { offset: 0x51586, size: 0x8, addend: 0x0, symName: __ZNSt3__120__throw_length_errorB8ne180100EPKc, symObjAddr: 0x10E14, symBinAddr: 0x1000122B8, symSize: 0x50 }
  - { offset: 0x51591, size: 0x8, addend: 0x0, symName: __ZNSt3__112basic_stringIcNS_11char_traitsIcEENS_9allocatorIcEEEC1IN4Pika8STLValueIS5_EELi0EEERKT_, symObjAddr: 0x13B1C, symBinAddr: 0x100014D50, symSize: 0xBC }
  - { offset: 0x519BE, size: 0x8, addend: 0x0, symName: __ZN4Pika12stringToLongINSt3__112basic_stringIcNS1_11char_traitsIcEENS1_9allocatorIcEEEEEElRNT_14const_iteratorERKS9_, symObjAddr: 0x13BD8, symBinAddr: 0x100014E0C, symSize: 0xC0 }
  - { offset: 0x51A02, size: 0x8, addend: 0x0, symName: __ZN4Pika6ScriptINS_9StdConfigEE5Frame8termExprERNSt3__111__wrap_iterIPKcEERKS8_RNS4_4pairIbNS_8STLValueINS4_12basic_stringIcNS4_11char_traitsIcEENS4_9allocatorIcEEEEEEEEbbNS_10PrecedenceEc.cold.1, symObjAddr: 0x2A3FC, symBinAddr: 0x10002B250, symSize: 0x28 }
  - { offset: 0x51A44, size: 0x8, addend: 0x0, symName: __ZN4Pika8unescapeINSt3__112basic_stringIcNS1_11char_traitsIcEENS1_9allocatorIcEEEEEET_RNS8_14const_iteratorERKS9_.cold.1, symObjAddr: 0x2A424, symBinAddr: 0x10002B278, symSize: 0x28 }
  - { offset: 0x51A5C, size: 0x8, addend: 0x0, symName: __ZN4Pika9hexToLongINSt3__112basic_stringIcNS1_11char_traitsIcEENS1_9allocatorIcEEEEEEmRNT_14const_iteratorERKS9_.cold.1, symObjAddr: 0x2A44C, symBinAddr: 0x10002B2A0, symSize: 0x28 }
  - { offset: 0x51A74, size: 0x8, addend: 0x0, symName: __ZN4Pika14stringToDoubleINSt3__112basic_stringIcNS1_11char_traitsIcEENS1_9allocatorIcEEEEEEdRNT_14const_iteratorERKS9_.cold.1, symObjAddr: 0x2A474, symBinAddr: 0x10002B2C8, symSize: 0x24 }
  - { offset: 0x51B0F, size: 0x8, addend: 0x0, symName: __ZN4Pika6ScriptINS_9StdConfigEE5Frame8binaryOpINSt3__112not_equal_toINS5_12basic_stringIcNS5_11char_traitsIcEENS5_9allocatorIcEEEEEEEEbRNS5_11__wrap_iterIPKcEERKSH_RNS5_4pairIbNS_8STLValueISC_EEEEbNS_10PrecedenceEiSQ_T_, symObjAddr: 0x7F28, symBinAddr: 0x10000940C, symSize: 0x1FC }
  - { offset: 0x52DC3, size: 0x8, addend: 0x0, symName: __ZN4Pika6ScriptINS_9StdConfigEE5Frame12assignableOpIPFlllEEEbRNSt3__111__wrap_iterIPKcEERKSB_RNS7_4pairIbNS_8STLValueINS7_12basic_stringIcNS7_11char_traitsIcEENS7_9allocatorIcEEEEEEEEbNS_10PrecedenceEiSQ_T_, symObjAddr: 0x7600, symBinAddr: 0x100008AE4, symSize: 0x27C }
  - { offset: 0x54156, size: 0x8, addend: 0x0, symName: __ZN4Pika6ScriptINS_9StdConfigEE5Frame5lgtOpINSt3__14lessINS_8STLValueINS5_12basic_stringIcNS5_11char_traitsIcEENS5_9allocatorIcEEEEEEEENS5_10less_equalISE_EEPFmmiEEEbRNS5_11__wrap_iterIPKcEERKSN_RNS5_4pairIbSE_EEbNS_10PrecedenceERKT_RKT0_T1_, symObjAddr: 0x7E30, symBinAddr: 0x100009314, symSize: 0x74 }
  - { offset: 0x542CA, size: 0x8, addend: 0x0, symName: __ZN4Pika9shiftLeftEmi, symObjAddr: 0x7EA4, symBinAddr: 0x100009388, symSize: 0x8 }
  - { offset: 0x5430C, size: 0x8, addend: 0x0, symName: __ZN4Pika6ScriptINS_9StdConfigEE5Frame8addSubOpINSt3__14plusIdEEEEbRNS5_11__wrap_iterIPKcEERKSB_RNS5_4pairIbNS_8STLValueINS5_12basic_stringIcNS5_11char_traitsIcEENS5_9allocatorIcEEEEEEEEbNS_10PrecedenceERKT_, symObjAddr: 0x6D60, symBinAddr: 0x100008244, symSize: 0x1D0 }
  - { offset: 0x54DEA, size: 0x8, addend: 0x0, symName: __ZN4Pika6ScriptINS_9StdConfigEE5Frame12assignableOpINSt3__110multipliesIdEEEEbRNS5_11__wrap_iterIPKcEERKSB_RNS5_4pairIbNS_8STLValueINS5_12basic_stringIcNS5_11char_traitsIcEENS5_9allocatorIcEEEEEEEEbNS_10PrecedenceEiSQ_T_, symObjAddr: 0x7398, symBinAddr: 0x10000887C, symSize: 0x268 }
  - { offset: 0x5614E, size: 0x8, addend: 0x0, symName: __ZN4Pika6ScriptINS_9StdConfigEE5Frame12assignableOpIPFdddEEEbRNSt3__111__wrap_iterIPKcEERKSB_RNS7_4pairIbNS_8STLValueINS7_12basic_stringIcNS7_11char_traitsIcEENS7_9allocatorIcEEEEEEEEbNS_10PrecedenceEiSQ_T_, symObjAddr: 0x7930, symBinAddr: 0x100008E14, symSize: 0x278 }
  - { offset: 0x574A2, size: 0x8, addend: 0x0, symName: __ZNK4Pika8STLValueINSt3__112basic_stringIcNS1_11char_traitsIcEENS1_9allocatorIcEEEEEixIS7_EEKS8_RKT_, symObjAddr: 0x8720, symBinAddr: 0x100009C04, symSize: 0x90 }
  - { offset: 0x57847, size: 0x8, addend: 0x0, symName: __ZN4Pika6ScriptINS_9StdConfigEE5Frame8binaryOpINSt3__18equal_toINS5_12basic_stringIcNS5_11char_traitsIcEENS5_9allocatorIcEEEEEEEEbRNS5_11__wrap_iterIPKcEERKSH_RNS5_4pairIbNS_8STLValueISC_EEEEbNS_10PrecedenceEiSQ_T_, symObjAddr: 0x831C, symBinAddr: 0x100009800, symSize: 0x1FC }
  - { offset: 0x58AEF, size: 0x8, addend: 0x0, symName: __ZN4Pika6ScriptINS_9StdConfigEE5Frame12assignableOpINSt3__14plusINS5_12basic_stringIcNS5_11char_traitsIcEENS5_9allocatorIcEEEEEEEEbRNS5_11__wrap_iterIPKcEERKSH_RNS5_4pairIbNS_8STLValueISC_EEEEbNS_10PrecedenceEiSQ_T_, symObjAddr: 0x7100, symBinAddr: 0x1000085E4, symSize: 0x298 }
  - { offset: 0x5A161, size: 0x8, addend: 0x0, symName: __ZN4Pika6ScriptINS_9StdConfigEE5Frame5lgtOpINSt3__17greaterINS_8STLValueINS5_12basic_stringIcNS5_11char_traitsIcEENS5_9allocatorIcEEEEEEEENS5_13greater_equalISE_EEPFmmiEEEbRNS5_11__wrap_iterIPKcEERKSN_RNS5_4pairIbSE_EEbNS_10PrecedenceERKT_RKT0_T1_, symObjAddr: 0x7EAC, symBinAddr: 0x100009390, symSize: 0x74 }
  - { offset: 0x5A2D5, size: 0x8, addend: 0x0, symName: __ZN4Pika10shiftRightEmi, symObjAddr: 0x7F20, symBinAddr: 0x100009404, symSize: 0x8 }
  - { offset: 0x5A30C, size: 0x8, addend: 0x0, symName: __ZN4Pika6ScriptINS_9StdConfigEE5Frame8addSubOpINSt3__15minusIdEEEEbRNS5_11__wrap_iterIPKcEERKSB_RNS5_4pairIbNS_8STLValueINS5_12basic_stringIcNS5_11char_traitsIcEENS5_9allocatorIcEEEEEEEEbNS_10PrecedenceERKT_, symObjAddr: 0x6F30, symBinAddr: 0x100008414, symSize: 0x1D0 }
  - { offset: 0x5ADDF, size: 0x8, addend: 0x0, symName: __ZNK4Pika8STLValueINSt3__112basic_stringIcNS1_11char_traitsIcEENS1_9allocatorIcEEEEEixERKS8_, symObjAddr: 0x87B0, symBinAddr: 0x100009C94, symSize: 0x4B0 }
  - { offset: 0x5CAAF, size: 0x8, addend: 0x0, symName: __ZN4Pika6ScriptINS_9StdConfigEE5Frame12assignableOpIPFmmmEEEbRNSt3__111__wrap_iterIPKcEERKSB_RNS7_4pairIbNS_8STLValueINS7_12basic_stringIcNS7_11char_traitsIcEENS7_9allocatorIcEEEEEEEEbNS_10PrecedenceEiSQ_T_, symObjAddr: 0x7BAC, symBinAddr: 0x100009090, symSize: 0x27C }
  - { offset: 0x5DE52, size: 0x8, addend: 0x0, symName: __ZN4Pika6ScriptINS_9StdConfigEE5Frame12assignableOpINSt3__17dividesIdEEEEbRNS5_11__wrap_iterIPKcEERKSB_RNS5_4pairIbNS_8STLValueINS5_12basic_stringIcNS5_11char_traitsIcEENS5_9allocatorIcEEEEEEEEbNS_10PrecedenceEiSQ_T_, symObjAddr: 0x6AF8, symBinAddr: 0x100007FDC, symSize: 0x268 }
  - { offset: 0x5F1C1, size: 0x8, addend: 0x0, symName: __ZN4Pika6ScriptINS_9StdConfigEE5Frame8binaryOpINSt3__18equal_toINS_8STLValueINS5_12basic_stringIcNS5_11char_traitsIcEENS5_9allocatorIcEEEEEEEEEEbRNS5_11__wrap_iterIPKcEERKSJ_RNS5_4pairIbSE_EEbNS_10PrecedenceEiSQ_T_, symObjAddr: 0x8518, symBinAddr: 0x1000099FC, symSize: 0x1F8 }
  - { offset: 0x604A6, size: 0x8, addend: 0x0, symName: __ZN4Pika6ScriptINS_9StdConfigEE5Frame8binaryOpINSt3__112not_equal_toINS_8STLValueINS5_12basic_stringIcNS5_11char_traitsIcEENS5_9allocatorIcEEEEEEEEEEbRNS5_11__wrap_iterIPKcEERKSJ_RNS5_4pairIbSE_EEbNS_10PrecedenceEiSQ_T_, symObjAddr: 0x8124, symBinAddr: 0x100009608, symSize: 0x1F8 }
  - { offset: 0x617A8, size: 0x8, addend: 0x0, symName: __ZN4Pika6ScriptINS_9StdConfigEE5Frame4postERNSt3__111__wrap_iterIPKcEERKS8_RNS4_4pairIbNS_8STLValueINS4_12basic_stringIcNS4_11char_traitsIcEENS4_9allocatorIcEEEEEEEEbNS_10PrecedenceE.cold.1, symObjAddr: 0x2A498, symBinAddr: 0x10002B2EC, symSize: 0x28 }
  - { offset: 0x617F4, size: 0x8, addend: 0x0, symName: __ZN4Pika6ScriptINS_9StdConfigEE5Frame8binaryOpINSt3__17dividesIdEEEEbRNS5_11__wrap_iterIPKcEERKSB_RNS5_4pairIbNS_8STLValueINS5_12basic_stringIcNS5_11char_traitsIcEENS5_9allocatorIcEEEEEEEEbNS_10PrecedenceEiSQ_T_, symObjAddr: 0x14070, symBinAddr: 0x100014FB8, symSize: 0x20C }
  - { offset: 0x62AC5, size: 0x8, addend: 0x0, symName: __ZN4Pika6ScriptINS_9StdConfigEE5Frame12assignableOpINSt3__17dividesIdEEEEbRNS5_11__wrap_iterIPKcEERKSB_RNS5_4pairIbNS_8STLValueINS5_12basic_stringIcNS5_11char_traitsIcEENS5_9allocatorIcEEEEEEEEbNS_10PrecedenceEiSQ_T_.cold.1, symObjAddr: 0x2A4C0, symBinAddr: 0x10002B314, symSize: 0x24 }
  - { offset: 0x62ADD, size: 0x8, addend: 0x0, symName: __ZN4Pika6ScriptINS_9StdConfigEE5Frame12assignableOpINSt3__17dividesIdEEEEbRNS5_11__wrap_iterIPKcEERKSB_RNS5_4pairIbNS_8STLValueINS5_12basic_stringIcNS5_11char_traitsIcEENS5_9allocatorIcEEEEEEEEbNS_10PrecedenceEiSQ_T_.cold.2, symObjAddr: 0x2A4E4, symBinAddr: 0x10002B338, symSize: 0x24 }
  - { offset: 0x62B29, size: 0x8, addend: 0x0, symName: __ZN4Pika6ScriptINS_9StdConfigEE5Frame12assignableOpINSt3__14plusIdEEEEbRNS5_11__wrap_iterIPKcEERKSB_RNS5_4pairIbNS_8STLValueINS5_12basic_stringIcNS5_11char_traitsIcEENS5_9allocatorIcEEEEEEEEbNS_10PrecedenceEiSQ_T_, symObjAddr: 0x1427C, symBinAddr: 0x1000151C4, symSize: 0x268 }
  - { offset: 0x63E8D, size: 0x8, addend: 0x0, symName: __ZN4Pika6ScriptINS_9StdConfigEE5Frame8addSubOpINSt3__14plusIdEEEEbRNS5_11__wrap_iterIPKcEERKSB_RNS5_4pairIbNS_8STLValueINS5_12basic_stringIcNS5_11char_traitsIcEENS5_9allocatorIcEEEEEEEEbNS_10PrecedenceERKT_.cold.1, symObjAddr: 0x2A508, symBinAddr: 0x10002B35C, symSize: 0x24 }
  - { offset: 0x63ED9, size: 0x8, addend: 0x0, symName: __ZN4Pika6ScriptINS_9StdConfigEE5Frame12assignableOpINSt3__15minusIdEEEEbRNS5_11__wrap_iterIPKcEERKSB_RNS5_4pairIbNS_8STLValueINS5_12basic_stringIcNS5_11char_traitsIcEENS5_9allocatorIcEEEEEEEEbNS_10PrecedenceEiSQ_T_, symObjAddr: 0x146F0, symBinAddr: 0x100015638, symSize: 0x268 }
  - { offset: 0x6527B, size: 0x8, addend: 0x0, symName: __ZN4Pika6ScriptINS_9StdConfigEE5Frame8binaryOpINSt3__14plusINS5_12basic_stringIcNS5_11char_traitsIcEENS5_9allocatorIcEEEEEEEEbRNS5_11__wrap_iterIPKcEERKSH_RNS5_4pairIbNS_8STLValueISC_EEEEbNS_10PrecedenceEiSQ_T_, symObjAddr: 0x14B64, symBinAddr: 0x100015AAC, symSize: 0x240 }
  - { offset: 0x668B1, size: 0x8, addend: 0x0, symName: __ZN4Pika6ScriptINS_9StdConfigEE5Frame8binaryOpINSt3__110multipliesIdEEEEbRNS5_11__wrap_iterIPKcEERKSB_RNS5_4pairIbNS_8STLValueINS5_12basic_stringIcNS5_11char_traitsIcEENS5_9allocatorIcEEEEEEEEbNS_10PrecedenceEiSQ_T_, symObjAddr: 0x14DA4, symBinAddr: 0x100015CEC, symSize: 0x20C }
  - { offset: 0x67B96, size: 0x8, addend: 0x0, symName: __ZN4Pika6ScriptINS_9StdConfigEE5Frame8binaryOpIPFlllEEEbRNSt3__111__wrap_iterIPKcEERKSB_RNS7_4pairIbNS_8STLValueINS7_12basic_stringIcNS7_11char_traitsIcEENS7_9allocatorIcEEEEEEEEbNS_10PrecedenceEiSQ_T_, symObjAddr: 0x14FB0, symBinAddr: 0x100015EF8, symSize: 0x214 }
  - { offset: 0x68E71, size: 0x8, addend: 0x0, symName: __ZN4Pika6ScriptINS_9StdConfigEE5Frame6intDivEll, symObjAddr: 0x787C, symBinAddr: 0x100008D60, symSize: 0xB4 }
  - { offset: 0x69055, size: 0x8, addend: 0x0, symName: __ZN4Pika6ScriptINS_9StdConfigEE5Frame8binaryOpIPFdddEEEbRNSt3__111__wrap_iterIPKcEERKSB_RNS7_4pairIbNS_8STLValueINS7_12basic_stringIcNS7_11char_traitsIcEENS7_9allocatorIcEEEEEEEEbNS_10PrecedenceEiSQ_T_, symObjAddr: 0x151C4, symBinAddr: 0x10001610C, symSize: 0x218 }
  - { offset: 0x6A32A, size: 0x8, addend: 0x0, symName: __ZN4Pika6ScriptINS_9StdConfigEE5Frame8binaryOpIPFmmmEEEbRNSt3__111__wrap_iterIPKcEERKSB_RNS7_4pairIbNS_8STLValueINS7_12basic_stringIcNS7_11char_traitsIcEENS7_9allocatorIcEEEEEEEEbNS_10PrecedenceEiSQ_T_, symObjAddr: 0x153DC, symBinAddr: 0x100016324, symSize: 0x214 }
  - { offset: 0x6B643, size: 0x8, addend: 0x0, symName: __ZN4Pika6ScriptINS_9StdConfigEE5Frame12assignableOpIPFmmiEEEbRNSt3__111__wrap_iterIPKcEERKSB_RNS7_4pairIbNS_8STLValueINS7_12basic_stringIcNS7_11char_traitsIcEENS7_9allocatorIcEEEEEEEEbNS_10PrecedenceEiSQ_T_, symObjAddr: 0x155F0, symBinAddr: 0x100016538, symSize: 0x27C }
  - { offset: 0x6C9DB, size: 0x8, addend: 0x0, symName: __ZN4Pika6ScriptINS_9StdConfigEE5Frame8binaryOpINSt3__110less_equalINS_8STLValueINS5_12basic_stringIcNS5_11char_traitsIcEENS5_9allocatorIcEEEEEEEEEEbRNS5_11__wrap_iterIPKcEERKSJ_RNS5_4pairIbSE_EEbNS_10PrecedenceEiSQ_T_, symObjAddr: 0x1586C, symBinAddr: 0x1000167B4, symSize: 0x1F8 }
  - { offset: 0x6DCDD, size: 0x8, addend: 0x0, symName: __ZN4Pika6ScriptINS_9StdConfigEE5Frame8binaryOpINSt3__14lessINS_8STLValueINS5_12basic_stringIcNS5_11char_traitsIcEENS5_9allocatorIcEEEEEEEEEEbRNS5_11__wrap_iterIPKcEERKSJ_RNS5_4pairIbSE_EEbNS_10PrecedenceEiSQ_T_, symObjAddr: 0x15A64, symBinAddr: 0x1000169AC, symSize: 0x1F8 }
  - { offset: 0x6EFB7, size: 0x8, addend: 0x0, symName: __ZN4Pika6ScriptINS_9StdConfigEE5Frame5lgtOpINSt3__14lessINS_8STLValueINS5_12basic_stringIcNS5_11char_traitsIcEENS5_9allocatorIcEEEEEEEENS5_10less_equalISE_EEPFmmiEEEbRNS5_11__wrap_iterIPKcEERKSN_RNS5_4pairIbSE_EEbNS_10PrecedenceERKT_RKT0_T1_.cold.1, symObjAddr: 0x2A6B8, symBinAddr: 0x10002B380, symSize: 0x24 }
  - { offset: 0x6EFCF, size: 0x8, addend: 0x0, symName: __ZN4Pika6ScriptINS_9StdConfigEE5Frame8binaryOpINSt3__113greater_equalINS_8STLValueINS5_12basic_stringIcNS5_11char_traitsIcEENS5_9allocatorIcEEEEEEEEEEbRNS5_11__wrap_iterIPKcEERKSJ_RNS5_4pairIbSE_EEbNS_10PrecedenceEiSQ_T_, symObjAddr: 0x15F28, symBinAddr: 0x100016E70, symSize: 0x1F8 }
  - { offset: 0x702D1, size: 0x8, addend: 0x0, symName: __ZN4Pika6ScriptINS_9StdConfigEE5Frame8binaryOpINSt3__17greaterINS_8STLValueINS5_12basic_stringIcNS5_11char_traitsIcEENS5_9allocatorIcEEEEEEEEEEbRNS5_11__wrap_iterIPKcEERKSJ_RNS5_4pairIbSE_EEbNS_10PrecedenceEiSQ_T_, symObjAddr: 0x16120, symBinAddr: 0x100017068, symSize: 0x1F8 }
  - { offset: 0x715DD, size: 0x8, addend: 0x0, symName: __ZNKSt3__112not_equal_toINS_12basic_stringIcNS_11char_traitsIcEENS_9allocatorIcEEEEEclB8ne180100ERKS6_S9_, symObjAddr: 0x16318, symBinAddr: 0x100017260, symSize: 0xA0 }
  - { offset: 0x71767, size: 0x8, addend: 0x0, symName: __ZN4Pika6ScriptINS_9StdConfigEE5Frame8binaryOpINSt3__112not_equal_toINS5_12basic_stringIcNS5_11char_traitsIcEENS5_9allocatorIcEEEEEEEEbRNS5_11__wrap_iterIPKcEERKSH_RNS5_4pairIbNS_8STLValueISC_EEEEbNS_10PrecedenceEiSQ_T_.cold.1, symObjAddr: 0x2A700, symBinAddr: 0x10002B3A4, symSize: 0x24 }
  - { offset: 0x7177F, size: 0x8, addend: 0x0, symName: __ZN4Pika6ScriptINS_9StdConfigEE5Frame8binaryOpINSt3__112not_equal_toINS5_12basic_stringIcNS5_11char_traitsIcEENS5_9allocatorIcEEEEEEEEbRNS5_11__wrap_iterIPKcEERKSH_RNS5_4pairIbNS_8STLValueISC_EEEEbNS_10PrecedenceEiSQ_T_.cold.2, symObjAddr: 0x2A724, symBinAddr: 0x10002B3C8, symSize: 0x24 }
  - { offset: 0x717ED, size: 0x8, addend: 0x0, symName: __ZNK4Pika8STLValueINSt3__112basic_stringIcNS1_11char_traitsIcEENS1_9allocatorIcEEEEEeqERKS8_, symObjAddr: 0x163B8, symBinAddr: 0x100017300, symSize: 0xEC }
  - { offset: 0x719B9, size: 0x8, addend: 0x0, symName: __ZNKSt3__18equal_toINS_12basic_stringIcNS_11char_traitsIcEENS_9allocatorIcEEEEEclB8ne180100ERKS6_S9_, symObjAddr: 0x164A4, symBinAddr: 0x1000173EC, symSize: 0xA4 }
  - { offset: 0x71B7D, size: 0x8, addend: 0x0, symName: __ZN4Pika6ScriptINS_9StdConfigEE8FullRootC2Eb, symObjAddr: 0x8C60, symBinAddr: 0x10000A144, symSize: 0xE0 }
  - { offset: 0x71F38, size: 0x8, addend: 0x0, symName: __ZN4Pika6ScriptINS_9StdConfigEE17addLibraryNativesERNS2_5FrameEb, symObjAddr: 0x8D40, symBinAddr: 0x10000A224, symSize: 0xFC0 }
  - { offset: 0x78C41, size: 0x8, addend: 0x0, symName: __ZN4Pika6ScriptINS_9StdConfigEE4RootD2Ev, symObjAddr: 0x9DD0, symBinAddr: 0x10000B2B4, symSize: 0x58 }
  - { offset: 0x79F2B, size: 0x8, addend: 0x0, symName: __ZNSt3__16__treeINS_12__value_typeIKNS_12basic_stringIcNS_11char_traitsIcEENS_9allocatorIcEEEEPN4Pika6ScriptINS9_9StdConfigEE6NativeEEENS_19__map_value_compareIS8_SF_NS_4lessIS8_EELb1EEENS5_ISF_EEE7destroyEPNS_11__tree_nodeISF_PvEE, symObjAddr: 0x13998, symBinAddr: 0x100014C70, symSize: 0x50 }
  - { offset: 0x7A216, size: 0x8, addend: 0x0, symName: __ZNSt3__16__treeINS_12__value_typeIKNS_12basic_stringIcNS_11char_traitsIcEENS_9allocatorIcEEEEN4Pika8STLValueIS7_EEEENS_19__map_value_compareIS8_SC_NS_4lessIS8_EELb1EEENS5_ISC_EEE7destroyEPNS_11__tree_nodeISC_PvEE, symObjAddr: 0x13900, symBinAddr: 0x100014BD8, symSize: 0x54 }
  - { offset: 0x7A38A, size: 0x8, addend: 0x0, symName: __ZN4Pika6ScriptINS_9StdConfigEE8FullRootC1Eb, symObjAddr: 0x9E28, symBinAddr: 0x10000B30C, symSize: 0x4 }
  - { offset: 0x7A3C8, size: 0x8, addend: 0x0, symName: __ZN4Pika6ScriptINS_9StdConfigEE8FullRootC1Eb, symObjAddr: 0x9E28, symBinAddr: 0x10000B30C, symSize: 0x4 }
  - { offset: 0x7A452, size: 0x8, addend: 0x0, symName: __ZN4Pika6ScriptINS_9StdConfigEE12STLVariables6lookupERKNSt3__112basic_stringIcNS4_11char_traitsIcEENS4_9allocatorIcEEEERNS_8STLValueISA_EE, symObjAddr: 0x9E2C, symBinAddr: 0x10000B310, symSize: 0x54 }
  - { offset: 0x7A578, size: 0x8, addend: 0x0, symName: __ZNSt3__16__treeINS_12__value_typeIKNS_12basic_stringIcNS_11char_traitsIcEENS_9allocatorIcEEEEN4Pika8STLValueIS7_EEEENS_19__map_value_compareIS8_SC_NS_4lessIS8_EELb1EEENS5_ISC_EEE4findIS7_EENS_15__tree_iteratorISC_PNS_11__tree_nodeISC_PvEElEERKT_, symObjAddr: 0x165D8, symBinAddr: 0x100017520, symSize: 0x8C }
  - { offset: 0x7A705, size: 0x8, addend: 0x0, symName: __ZNSt3__16__treeINS_12__value_typeIKNS_12basic_stringIcNS_11char_traitsIcEENS_9allocatorIcEEEEN4Pika8STLValueIS7_EEEENS_19__map_value_compareIS8_SC_NS_4lessIS8_EELb1EEENS5_ISC_EEE12__find_equalIS7_EERPNS_16__tree_node_baseIPvEERPNS_15__tree_end_nodeISN_EERKT_, symObjAddr: 0x166CC, symBinAddr: 0x100017614, symSize: 0x9C }
  - { offset: 0x7A82A, size: 0x8, addend: 0x0, symName: __ZNSt3__13mapIKNS_12basic_stringIcNS_11char_traitsIcEENS_9allocatorIcEEEEN4Pika8STLValueIS6_EENS_4lessIS7_EENS4_INS_4pairIS7_SA_EEEEE25__construct_node_with_keyERS7_, symObjAddr: 0x16768, symBinAddr: 0x1000176B0, symSize: 0xA4 }
  - { offset: 0x7AC9F, size: 0x8, addend: 0x0, symName: __ZN4Pika6ScriptINS_9StdConfigEE12STLVariables5eraseERKNSt3__112basic_stringIcNS4_11char_traitsIcEENS4_9allocatorIcEEEE, symObjAddr: 0x9EF4, symBinAddr: 0x10000B3D8, symSize: 0x20 }
  - { offset: 0x7AD0F, size: 0x8, addend: 0x0, symName: __ZNSt3__16__treeINS_12__value_typeIKNS_12basic_stringIcNS_11char_traitsIcEENS_9allocatorIcEEEEN4Pika8STLValueIS7_EEEENS_19__map_value_compareIS8_SC_NS_4lessIS8_EELb1EEENS5_ISC_EEE14__erase_uniqueIS7_EEmRKT_, symObjAddr: 0x168C8, symBinAddr: 0x1000177BC, symSize: 0x58 }
  - { offset: 0x7B1F2, size: 0x8, addend: 0x0, symName: __ZN4Pika6ScriptINS_9StdConfigEE12STLVariables4listERKNSt3__112basic_stringIcNS4_11char_traitsIcEENS4_9allocatorIcEEEERNS4_6vectorINS4_4pairISA_NS_8STLValueISA_EEEENS8_ISH_EEEE, symObjAddr: 0x9F14, symBinAddr: 0x10000B3F8, symSize: 0x218 }
  - { offset: 0x7BB0C, size: 0x8, addend: 0x0, symName: __ZNKSt3__14lessIKNS_12basic_stringIcNS_11char_traitsIcEENS_9allocatorIcEEEEEclB8ne180100ERS7_S9_, symObjAddr: 0x16664, symBinAddr: 0x1000175AC, symSize: 0x68 }
  - { offset: 0x7BC93, size: 0x8, addend: 0x0, symName: __ZNSt3__14pairINS_12basic_stringIcNS_11char_traitsIcEENS_9allocatorIcEEEEN4Pika8STLValueIS6_EEEC2B8ne180100IKS6_S9_EERKNS0_IT_T0_EE, symObjAddr: 0x16DEC, symBinAddr: 0x100017C18, symSize: 0x94 }
  - { offset: 0x7BF18, size: 0x8, addend: 0x0, symName: __ZNSt3__14pairINS_12basic_stringIcNS_11char_traitsIcEENS_9allocatorIcEEEEN4Pika8STLValueIS6_EEEC2B8ne180100EOSA_, symObjAddr: 0x16A98, symBinAddr: 0x10001791C, symSize: 0x94 }
  - { offset: 0x7C188, size: 0x8, addend: 0x0, symName: __ZNSt3__16vectorINS_4pairINS_12basic_stringIcNS_11char_traitsIcEENS_9allocatorIcEEEEN4Pika8STLValueIS7_EEEENS5_ISB_EEE21__push_back_slow_pathISB_EEPSB_OT_, symObjAddr: 0x16990, symBinAddr: 0x100017814, symSize: 0x108 }
  - { offset: 0x7C465, size: 0x8, addend: 0x0, symName: __ZNSt3__14pairINS_12basic_stringIcNS_11char_traitsIcEENS_9allocatorIcEEEEN4Pika8STLValueIS6_EEED1Ev, symObjAddr: 0xA12C, symBinAddr: 0x10000B610, symSize: 0x40 }
  - { offset: 0x7C778, size: 0x8, addend: 0x0, symName: __ZN4Pika6ScriptINS_9StdConfigEE12STLVariables12lookupNativeERKNSt3__112basic_stringIcNS4_11char_traitsIcEENS4_9allocatorIcEEEE, symObjAddr: 0xA16C, symBinAddr: 0x10000B650, symSize: 0x3C }
  - { offset: 0x7C9EA, size: 0x8, addend: 0x0, symName: __ZN4Pika6ScriptINS_9StdConfigEE12STLVariables12assignNativeERKNSt3__112basic_stringIcNS4_11char_traitsIcEENS4_9allocatorIcEEEEPNS2_6NativeE, symObjAddr: 0xA1A8, symBinAddr: 0x10000B68C, symSize: 0xBC }
  - { offset: 0x7CE55, size: 0x8, addend: 0x0, symName: __ZNSt3__16__treeINS_12__value_typeIKNS_12basic_stringIcNS_11char_traitsIcEENS_9allocatorIcEEEEPN4Pika6ScriptINS9_9StdConfigEE6NativeEEENS_19__map_value_compareIS8_SF_NS_4lessIS8_EELb1EEENS5_ISF_EEE25__emplace_unique_key_argsIS7_JRKNS_4pairIS8_SE_EEEEENSN_INS_15__tree_iteratorISF_PNS_11__tree_nodeISF_PvEElEEbEERKT_DpOT0_, symObjAddr: 0x16F0C, symBinAddr: 0x100017CAC, symSize: 0x7C }
  - { offset: 0x7CFAE, size: 0x8, addend: 0x0, symName: __ZN4Pika6ScriptINS_9StdConfigEE12STLVariablesD0Ev, symObjAddr: 0xA264, symBinAddr: 0x10000B748, symSize: 0x38 }
  - { offset: 0x7D07C, size: 0x8, addend: 0x0, symName: __ZN4Pika6ScriptINS_9StdConfigEE16getThisAndMethodERNS2_5FrameE, symObjAddr: 0xA29C, symBinAddr: 0x10000B780, symSize: 0x2B8 }
  - { offset: 0x7E5E4, size: 0x8, addend: 0x0, symName: __ZNSt3__14pairIN4Pika8STLValueINS_12basic_stringIcNS_11char_traitsIcEENS_9allocatorIcEEEEEES8_EC2B8ne180100ERKS9_RKS8_, symObjAddr: 0x17168, symBinAddr: 0x100017E18, symSize: 0x94 }
  - { offset: 0x7E8E1, size: 0x8, addend: 0x0, symName: __ZN4Pika6ScriptINS_9StdConfigEE7getThisERNS2_5FrameE, symObjAddr: 0xA554, symBinAddr: 0x10000BA38, symSize: 0x8C }
  - { offset: 0x7EDEF, size: 0x8, addend: 0x0, symName: __ZN4Pika6ScriptINS_9StdConfigEE9getMethodERNS2_5FrameE, symObjAddr: 0xA620, symBinAddr: 0x10000BAC4, symSize: 0x94 }
  - { offset: 0x7F166, size: 0x8, addend: 0x0, symName: __ZN4Pika6ScriptINS_9StdConfigEE3lib7elevateERNS2_5FrameE, symObjAddr: 0xA6B4, symBinAddr: 0x10000BB58, symSize: 0xB4 }
  - { offset: 0x7F817, size: 0x8, addend: 0x0, symName: __ZN4Pika6ScriptINS_9StdConfigEE3lib9characterEd, symObjAddr: 0xA768, symBinAddr: 0x10000BC0C, symSize: 0x138 }
  - { offset: 0x7FCD6, size: 0x8, addend: 0x0, symName: __ZN4Pika14doubleToStringINSt3__112basic_stringIcNS1_11char_traitsIcEENS1_9allocatorIcEEEEEET_di.cold.1, symObjAddr: 0x2A820, symBinAddr: 0x10002B3EC, symSize: 0x28 }
  - { offset: 0x7FD0A, size: 0x8, addend: 0x0, symName: __ZN4Pika6ScriptINS_9StdConfigEE3lib7deleterERKNS2_5FrameE, symObjAddr: 0xAD84, symBinAddr: 0x10000C228, symSize: 0xF8 }
  - { offset: 0x804AB, size: 0x8, addend: 0x0, symName: __ZN4Pika6ScriptINS_9StdConfigEE3lib8evaluateERKNS2_5FrameE, symObjAddr: 0xAE7C, symBinAddr: 0x10000C320, symSize: 0x1E0 }
  - { offset: 0x81953, size: 0x8, addend: 0x0, symName: __ZN4Pika6ScriptINS_9StdConfigEE3lib6existsERKNS2_5FrameE, symObjAddr: 0xB05C, symBinAddr: 0x10000C500, symSize: 0x124 }
  - { offset: 0x82425, size: 0x8, addend: 0x0, symName: __ZN4Pika6ScriptINS_9StdConfigEE3lib4findERKNSt3__112basic_stringIcNS4_11char_traitsIcEENS4_9allocatorIcEEEESC_, symObjAddr: 0xB180, symBinAddr: 0x10000C624, symSize: 0x84 }
  - { offset: 0x8245C, size: 0x8, addend: 0x0, symName: __ZN4Pika6ScriptINS_9StdConfigEE3lib4findERKNSt3__112basic_stringIcNS4_11char_traitsIcEENS4_9allocatorIcEEEESC_, symObjAddr: 0xB180, symBinAddr: 0x10000C624, symSize: 0x84 }
  - { offset: 0x82478, size: 0x8, addend: 0x0, symName: __ZN4Pika6ScriptINS_9StdConfigEE3lib4findERKNSt3__112basic_stringIcNS4_11char_traitsIcEENS4_9allocatorIcEEEESC_, symObjAddr: 0xB180, symBinAddr: 0x10000C624, symSize: 0x84 }
  - { offset: 0x82494, size: 0x8, addend: 0x0, symName: __ZN4Pika6ScriptINS_9StdConfigEE3lib4findERKNSt3__112basic_stringIcNS4_11char_traitsIcEENS4_9allocatorIcEEEESC_, symObjAddr: 0xB180, symBinAddr: 0x10000C624, symSize: 0x84 }
  - { offset: 0x82725, size: 0x8, addend: 0x0, symName: __ZN4Pika6ScriptINS_9StdConfigEE3lib7foreachERNS2_5FrameE, symObjAddr: 0xB204, symBinAddr: 0x10000C6A8, symSize: 0x3FC }
  - { offset: 0x848C3, size: 0x8, addend: 0x0, symName: __ZNSt3__16vectorINS_4pairINS_12basic_stringIcNS_11char_traitsIcEENS_9allocatorIcEEEEN4Pika8STLValueIS7_EEEENS5_ISB_EEE16__destroy_vectorclB8ne180100Ev, symObjAddr: 0x172A4, symBinAddr: 0x100017F54, symSize: 0x40 }
  - { offset: 0x84B1C, size: 0x8, addend: 0x0, symName: __ZN4Pika6ScriptINS_9StdConfigEE3lib5inputERKNSt3__112basic_stringIcNS4_11char_traitsIcEENS4_9allocatorIcEEEE, symObjAddr: 0xB600, symBinAddr: 0x10000CAA4, symSize: 0x214 }
  - { offset: 0x8527E, size: 0x8, addend: 0x0, symName: __ZN4Pika6ScriptINS_9StdConfigEE3lib6invokeERNS2_5FrameE, symObjAddr: 0xB814, symBinAddr: 0x10000CCB8, symSize: 0x5C8 }
  - { offset: 0x88794, size: 0x8, addend: 0x0, symName: __ZNSt3__16vectorIN4Pika8STLValueINS_12basic_stringIcNS_11char_traitsIcEENS_9allocatorIcEEEEEENS6_IS9_EEEC2Em, symObjAddr: 0x17760, symBinAddr: 0x100018410, symSize: 0xA0 }
  - { offset: 0x88A29, size: 0x8, addend: 0x0, symName: __ZNK4Pika8STLValueINSt3__112basic_stringIcNS1_11char_traitsIcEENS1_9allocatorIcEEEEEixIlEEKS8_RKT_, symObjAddr: 0xBDDC, symBinAddr: 0x10000D280, symSize: 0x70 }
  - { offset: 0x88D5B, size: 0x8, addend: 0x0, symName: __ZNSt3__16vectorIN4Pika8STLValueINS_12basic_stringIcNS_11char_traitsIcEENS_9allocatorIcEEEEEENS6_IS9_EEE16__destroy_vectorclB8ne180100Ev, symObjAddr: 0x178A8, symBinAddr: 0x100018544, symSize: 0x40 }
  - { offset: 0x88E32, size: 0x8, addend: 0x0, symName: __ZN4Pika6ScriptINS_9StdConfigEE3lib6lengthERKNSt3__112basic_stringIcNS4_11char_traitsIcEENS4_9allocatorIcEEEE, symObjAddr: 0xBE4C, symBinAddr: 0x10000D2F0, symSize: 0x18 }
  - { offset: 0x88E5B, size: 0x8, addend: 0x0, symName: __ZN4Pika6ScriptINS_9StdConfigEE3lib6lengthERKNSt3__112basic_stringIcNS4_11char_traitsIcEENS4_9allocatorIcEEEE, symObjAddr: 0xBE4C, symBinAddr: 0x10000D2F0, symSize: 0x18 }
  - { offset: 0x88E77, size: 0x8, addend: 0x0, symName: __ZN4Pika6ScriptINS_9StdConfigEE3lib6lengthERKNSt3__112basic_stringIcNS4_11char_traitsIcEENS4_9allocatorIcEEEE, symObjAddr: 0xBE4C, symBinAddr: 0x10000D2F0, symSize: 0x18 }
  - { offset: 0x8921C, size: 0x8, addend: 0x0, symName: __ZN4Pika6ScriptINS_9StdConfigEE3lib4loadERKNSt3__112basic_stringIcNS4_11char_traitsIcEENS4_9allocatorIcEEEE, symObjAddr: 0xBE64, symBinAddr: 0x10000D308, symSize: 0x424 }
  - { offset: 0x8A2CA, size: 0x8, addend: 0x0, symName: __ZNSt3__114basic_ifstreamIcNS_11char_traitsIcEEEC1EPKcj, symObjAddr: 0xC288, symBinAddr: 0x10000D72C, symSize: 0x110 }
  - { offset: 0x8A3AD, size: 0x8, addend: 0x0, symName: __ZNSt3__114basic_ifstreamIcNS_11char_traitsIcEEED1Ev, symObjAddr: 0xC398, symBinAddr: 0x10000D83C, symSize: 0x8C }
  - { offset: 0x8A56D, size: 0x8, addend: 0x0, symName: __ZN4Pika6ScriptINS_9StdConfigEE3lib5lowerENSt3__112basic_stringIcNS4_11char_traitsIcEENS4_9allocatorIcEEEE, symObjAddr: 0xC424, symBinAddr: 0x10000D8C8, symSize: 0xD4 }
  - { offset: 0x8A76F, size: 0x8, addend: 0x0, symName: __ZN4Pika6ScriptINS_9StdConfigEE3lib8mismatchERKNSt3__112basic_stringIcNS4_11char_traitsIcEENS4_9allocatorIcEEEESC_, symObjAddr: 0xC4F8, symBinAddr: 0x10000D99C, symSize: 0xF0 }
  - { offset: 0x8A7A6, size: 0x8, addend: 0x0, symName: __ZN4Pika6ScriptINS_9StdConfigEE3lib8mismatchERKNSt3__112basic_stringIcNS4_11char_traitsIcEENS4_9allocatorIcEEEESC_, symObjAddr: 0xC4F8, symBinAddr: 0x10000D99C, symSize: 0xF0 }
  - { offset: 0x8A7C2, size: 0x8, addend: 0x0, symName: __ZN4Pika6ScriptINS_9StdConfigEE3lib8mismatchERKNSt3__112basic_stringIcNS4_11char_traitsIcEENS4_9allocatorIcEEEESC_, symObjAddr: 0xC4F8, symBinAddr: 0x10000D99C, symSize: 0xF0 }
  - { offset: 0x8AAF9, size: 0x8, addend: 0x0, symName: __ZN4Pika6ScriptINS_9StdConfigEE3lib7ordinalERKNSt3__112basic_stringIcNS4_11char_traitsIcEENS4_9allocatorIcEEEE, symObjAddr: 0xC5E8, symBinAddr: 0x10000DA8C, symSize: 0x130 }
  - { offset: 0x8AEF1, size: 0x8, addend: 0x0, symName: __ZN4Pika6ScriptINS_9StdConfigEE3lib5parseERNS2_5FrameE, symObjAddr: 0xC718, symBinAddr: 0x10000DBBC, symSize: 0x1C0 }
  - { offset: 0x8BD6B, size: 0x8, addend: 0x0, symName: __ZN4Pika6ScriptINS_9StdConfigEE3lib9precisionERKNS2_5FrameE, symObjAddr: 0xC8D8, symBinAddr: 0x10000DD7C, symSize: 0x154 }
  - { offset: 0x8C8FF, size: 0x8, addend: 0x0, symName: __ZN4Pika6ScriptINS_9StdConfigEE3lib5printERKNSt3__112basic_stringIcNS4_11char_traitsIcEENS4_9allocatorIcEEEE, symObjAddr: 0xCA2C, symBinAddr: 0x10000DED0, symSize: 0x108 }
  - { offset: 0x8CD35, size: 0x8, addend: 0x0, symName: __ZN4Pika6ScriptINS_9StdConfigEE3lib5radixERKNS2_5FrameE, symObjAddr: 0xCBC8, symBinAddr: 0x10000E06C, symSize: 0x3C0 }
  - { offset: 0x8E41E, size: 0x8, addend: 0x0, symName: __ZN4Pika6ScriptINS_9StdConfigEE3lib6randomEd, symObjAddr: 0xD170, symBinAddr: 0x10000E614, symSize: 0x34 }
  - { offset: 0x8E496, size: 0x8, addend: 0x0, symName: __ZN4Pika6ScriptINS_9StdConfigEE3lib7reverseENSt3__112basic_stringIcNS4_11char_traitsIcEENS4_9allocatorIcEEEE, symObjAddr: 0xD1A4, symBinAddr: 0x10000E648, symSize: 0x78 }
  - { offset: 0x8E4EB, size: 0x8, addend: 0x0, symName: __ZN4Pika6ScriptINS_9StdConfigEE3lib7reverseENSt3__112basic_stringIcNS4_11char_traitsIcEENS4_9allocatorIcEEEE, symObjAddr: 0xD1A4, symBinAddr: 0x10000E648, symSize: 0x78 }
  - { offset: 0x8E706, size: 0x8, addend: 0x0, symName: __ZN4Pika6ScriptINS_9StdConfigEE3lib4saveERKNSt3__112basic_stringIcNS4_11char_traitsIcEENS4_9allocatorIcEEEESC_, symObjAddr: 0xD21C, symBinAddr: 0x10000E6C0, symSize: 0x31C }
  - { offset: 0x8EF32, size: 0x8, addend: 0x0, symName: __ZNSt3__114basic_ofstreamIcNS_11char_traitsIcEEEC1EPKcj, symObjAddr: 0xD538, symBinAddr: 0x10000E9DC, symSize: 0x10C }
  - { offset: 0x8F015, size: 0x8, addend: 0x0, symName: __ZNSt3__114basic_ofstreamIcNS_11char_traitsIcEEED1Ev, symObjAddr: 0xD644, symBinAddr: 0x10000EAE8, symSize: 0x8C }
  - { offset: 0x8F087, size: 0x8, addend: 0x0, symName: __ZN4Pika6ScriptINS_9StdConfigEE3lib6systemERKNSt3__112basic_stringIcNS4_11char_traitsIcEENS4_9allocatorIcEEEE, symObjAddr: 0xD6D0, symBinAddr: 0x10000EB74, symSize: 0x188 }
  - { offset: 0x8F81D, size: 0x8, addend: 0x0, symName: __ZN4Pika6ScriptINS_9StdConfigEE3lib6searchERKNSt3__112basic_stringIcNS4_11char_traitsIcEENS4_9allocatorIcEEEESC_, symObjAddr: 0xD858, symBinAddr: 0x10000ECFC, symSize: 0x8C }
  - { offset: 0x8FA42, size: 0x8, addend: 0x0, symName: __ZN4Pika6ScriptINS_9StdConfigEE3lib4spanERKNSt3__112basic_stringIcNS4_11char_traitsIcEENS4_9allocatorIcEEEESC_, symObjAddr: 0xD8E4, symBinAddr: 0x10000ED88, symSize: 0xB0 }
  - { offset: 0x8FC23, size: 0x8, addend: 0x0, symName: __ZN4Pika6ScriptINS_9StdConfigEE3lib7throwerERKNSt3__112basic_stringIcNS4_11char_traitsIcEENS4_9allocatorIcEEEE, symObjAddr: 0xD994, symBinAddr: 0x10000EE38, symSize: 0x50 }
  - { offset: 0x8FC5E, size: 0x8, addend: 0x0, symName: __ZN4Pika6ScriptINS_9StdConfigEE3lib4timeERKNS2_5FrameE, symObjAddr: 0xD9E4, symBinAddr: 0x10000EE88, symSize: 0x2C }
  - { offset: 0x8FD0D, size: 0x8, addend: 0x0, symName: __ZN4Pika6ScriptINS_9StdConfigEE3lib5traceERKNS2_5FrameE, symObjAddr: 0xDA10, symBinAddr: 0x10000EEB4, symSize: 0x188 }
  - { offset: 0x90D57, size: 0x8, addend: 0x0, symName: __ZN4Pika6ScriptINS_9StdConfigEE3lib5tryerERNS2_5FrameE, symObjAddr: 0xDB98, symBinAddr: 0x10000F03C, symSize: 0x194 }
  - { offset: 0x91B59, size: 0x8, addend: 0x0, symName: __ZN4Pika6ScriptINS_9StdConfigEE3lib5upperENSt3__112basic_stringIcNS4_11char_traitsIcEENS4_9allocatorIcEEEE, symObjAddr: 0xDD2C, symBinAddr: 0x10000F1D0, symSize: 0xD4 }
  - { offset: 0x925DD, size: 0x8, addend: 0x0, symName: __ZN8QStrings7QStringIcLm52EE7releaseEv, symObjAddr: 0x10F58, symBinAddr: 0x1000123FC, symSize: 0x88 }
  - { offset: 0x92679, size: 0x8, addend: 0x0, symName: __ZN8QStrings7QStringIcLm52EE6appendEPKcm, symObjAddr: 0x18A4C, symBinAddr: 0x1000196E8, symSize: 0x130 }
  - { offset: 0x92821, size: 0x8, addend: 0x0, symName: __ZN8QStrings7QStringIcLm52EEC2ERKS1_mm, symObjAddr: 0x18B7C, symBinAddr: 0x100019818, symSize: 0x48 }
  - { offset: 0x9282C, size: 0x8, addend: 0x0, symName: __ZN8QStrings7QStringIcLm52EEpLERKS1_, symObjAddr: 0xEA90, symBinAddr: 0x10000FF34, symSize: 0x68 }
  - { offset: 0x928C7, size: 0x8, addend: 0x0, symName: __ZNK8QStrings7QStringIcLm52EE6concatEPKcm, symObjAddr: 0x18BC4, symBinAddr: 0x100019860, symSize: 0xBC }
  - { offset: 0x92A01, size: 0x8, addend: 0x0, symName: __ZN8QStrings7QStringIcLm52EEC2ENS1_9_iteratorIKcKS1_EES5_, symObjAddr: 0x18D88, symBinAddr: 0x100019A24, symSize: 0x6C }
  - { offset: 0x92AC6, size: 0x8, addend: 0x0, symName: __ZNK8QStrings7QStringIcLm52EE7unshareEv, symObjAddr: 0x18DF4, symBinAddr: 0x100019A90, symSize: 0x74 }
  - { offset: 0x92AD1, size: 0x8, addend: 0x0, symName: __ZNK8QStrings7QStringIcLm52EE7unshareEv, symObjAddr: 0x18DF4, symBinAddr: 0x100019A90, symSize: 0x74 }
  - { offset: 0x92BF1, size: 0x8, addend: 0x0, symName: __ZNK8QStrings7QStringIcLm52EEeqERKS1_, symObjAddr: 0xEAF8, symBinAddr: 0x10000FF9C, symSize: 0x4C }
  - { offset: 0x92C54, size: 0x8, addend: 0x0, symName: __ZNK8QStrings7QStringIcLm52EEltERKS1_, symObjAddr: 0xEB44, symBinAddr: 0x10000FFE8, symSize: 0x58 }
  - { offset: 0x92CC0, size: 0x8, addend: 0x0, symName: __ZNK8QStrings7QStringIcLm52EE9_iteratorIKcKS1_EdeEv, symObjAddr: 0xEB9C, symBinAddr: 0x100010040, symSize: 0x34 }
  - { offset: 0x92D1E, size: 0x8, addend: 0x0, symName: __ZNK8QStrings7QStringIcLm52EE9_iteratorIKcKS1_EgeIS3_S4_EEbRKNS2_IT_T0_EE, symObjAddr: 0xEBD0, symBinAddr: 0x100010074, symSize: 0x34 }
  - { offset: 0x92D29, size: 0x8, addend: 0x0, symName: __ZNK8QStrings7QStringIcLm52EE9_iteratorIKcKS1_EdeEv.cold.1, symObjAddr: 0x2A920, symBinAddr: 0x10002B414, symSize: 0x24 }
  - { offset: 0x92D41, size: 0x8, addend: 0x0, symName: __ZNK8QStrings7QStringIcLm52EE9_iteratorIKcKS1_EgeIS3_S4_EEbRKNS2_IT_T0_EE, symObjAddr: 0xEBD0, symBinAddr: 0x100010074, symSize: 0x34 }
  - { offset: 0x92D6E, size: 0x8, addend: 0x0, symName: __Z14overloadedLoadRKN8QStrings7QStringIcLm52EEE, symObjAddr: 0xEC04, symBinAddr: 0x1000100A8, symSize: 0x440 }
  - { offset: 0x92D79, size: 0x8, addend: 0x0, symName: __ZNK8QStrings7QStringIcLm52EE9_iteratorIKcKS1_EgeIS3_S4_EEbRKNS2_IT_T0_EE.cold.1, symObjAddr: 0x2A944, symBinAddr: 0x10002B438, symSize: 0x24 }
  - { offset: 0x92EA3, size: 0x8, addend: 0x0, symName: __Z14overloadedLoadRKN8QStrings7QStringIcLm52EEE, symObjAddr: 0xEC04, symBinAddr: 0x1000100A8, symSize: 0x440 }
  - { offset: 0x93FEA, size: 0x8, addend: 0x0, symName: __ZNSt3__112basic_stringIcNS_11char_traitsIcEENS_9allocatorIcEEEC2B8ne180100IN8QStrings7QStringIcLm52EE9_iteratorIKcKS9_EELi0EEET_SE_, symObjAddr: 0x18F78, symBinAddr: 0x100019C14, symSize: 0x34 }
  - { offset: 0x94095, size: 0x8, addend: 0x0, symName: __ZNSt3__112basic_stringIcNS_11char_traitsIcEENS_9allocatorIcEEE16__init_with_sizeB8ne180100IN8QStrings7QStringIcLm52EE9_iteratorIKcKS9_EESD_EEvT_T0_m, symObjAddr: 0x18FAC, symBinAddr: 0x100019C48, symSize: 0x118 }
  - { offset: 0x940AF, size: 0x8, addend: 0x0, symName: __ZL8loadFileRNSt3__114basic_ifstreamIcNS_11char_traitsIcEEEERKNS_12basic_stringIcS2_NS_9allocatorIcEEEE, symObjAddr: 0xF044, symBinAddr: 0x1000104E8, symSize: 0x278 }
  - { offset: 0x94891, size: 0x8, addend: 0x0, symName: __ZN8QStrings7QStringIcLm52EEC2EPKcmm, symObjAddr: 0x18C80, symBinAddr: 0x10001991C, symSize: 0x38 }
  - { offset: 0x948DD, size: 0x8, addend: 0x0, symName: __ZN8QStrings7QStringIcLm52EE9newBufferEmPKcm, symObjAddr: 0x18CB8, symBinAddr: 0x100019954, symSize: 0xD0 }
  - { offset: 0x948E8, size: 0x8, addend: 0x0, symName: __ZN8QStrings7QStringIcLm52EE9newBufferEmPKcm, symObjAddr: 0x18CB8, symBinAddr: 0x100019954, symSize: 0xD0 }
  - { offset: 0x94AF6, size: 0x8, addend: 0x0, symName: __ZN4Pika9ExceptionIN8QStrings7QStringIcLm52EEEEC1ERKS3_, symObjAddr: 0xF618, symBinAddr: 0x100010ABC, symSize: 0x30 }
  - { offset: 0x94B1F, size: 0x8, addend: 0x0, symName: __ZN4Pika9ExceptionIN8QStrings7QStringIcLm52EEEEC1ERKS3_, symObjAddr: 0xF618, symBinAddr: 0x100010ABC, symSize: 0x30 }
  - { offset: 0x94C36, size: 0x8, addend: 0x0, symName: __ZN4Pika9ExceptionIN8QStrings7QStringIcLm52EEEED1Ev, symObjAddr: 0xF648, symBinAddr: 0x100010AEC, symSize: 0x4 }
  - { offset: 0x94C58, size: 0x8, addend: 0x0, symName: __ZN4Pika9ExceptionIN8QStrings7QStringIcLm52EEEED1Ev, symObjAddr: 0xF648, symBinAddr: 0x100010AEC, symSize: 0x4 }
  - { offset: 0x94C6B, size: 0x8, addend: 0x0, symName: __ZN4Pika9ExceptionIN8QStrings7QStringIcLm52EEEED2Ev, symObjAddr: 0x18F34, symBinAddr: 0x100019BD0, symSize: 0x44 }
  - { offset: 0x94E96, size: 0x8, addend: 0x0, symName: __Z17getEnvironmentVarRKN8QStrings7QStringIcLm52EEE, symObjAddr: 0xF64C, symBinAddr: 0x100010AF0, symSize: 0xE8 }
  - { offset: 0x95AEF, size: 0x8, addend: 0x0, symName: _main, symObjAddr: 0xF734, symBinAddr: 0x100010BD8, symSize: 0xBA4 }
  - { offset: 0x9907D, size: 0x8, addend: 0x0, symName: __ZN4Pika6ScriptI19QuickerScriptConfigE8FullRootC2Eb, symObjAddr: 0x191E0, symBinAddr: 0x100019E7C, symSize: 0x108 }
  - { offset: 0x993B9, size: 0x8, addend: 0x0, symName: __ZN4Pika6ScriptI19QuickerScriptConfigE5Frame14registerNativeERKN8QStrings7QStringIcLm52EEEPNS2_6NativeE, symObjAddr: 0x1D994, symBinAddr: 0x10001E630, symSize: 0x260 }
  - { offset: 0x99C2D, size: 0x8, addend: 0x0, symName: __ZN4Pika8STLValueIN8QStrings7QStringIcLm52EEEEC2Ei, symObjAddr: 0x29F14, symBinAddr: 0x10002A5CC, symSize: 0x60 }
  - { offset: 0x99D18, size: 0x8, addend: 0x0, symName: __ZN4Pika9QuickVarsINS_6ScriptI19QuickerScriptConfigE12STLVariablesELj11EE6assignERKN8QStrings7QStringIcLm52EEERKNS_8STLValueIS8_EE, symObjAddr: 0x102D8, symBinAddr: 0x10001177C, symSize: 0x17C }
  - { offset: 0x9A169, size: 0x8, addend: 0x0, symName: __ZNSt3__16vectorIN4Pika8STLValueIN8QStrings7QStringIcLm52EEEEENS_9allocatorIS6_EEEC2EmRKS6_, symObjAddr: 0x29F74, symBinAddr: 0x10002A62C, symSize: 0xA8 }
  - { offset: 0x9A43E, size: 0x8, addend: 0x0, symName: __ZNSt3__16vectorIN4Pika8STLValueIN8QStrings7QStringIcLm52EEEEENS_9allocatorIS6_EEE21__push_back_slow_pathIS6_EEPS6_OT_, symObjAddr: 0x2A01C, symBinAddr: 0x10002A6D4, symSize: 0x11C }
  - { offset: 0x9A76A, size: 0x8, addend: 0x0, symName: __ZN4Pika8STLValueIN8QStrings7QStringIcLm52EEEEC2IPKcEERKT_, symObjAddr: 0x2A1F0, symBinAddr: 0x10002A8A8, symSize: 0x88 }
  - { offset: 0x9AAC2, size: 0x8, addend: 0x0, symName: __ZN4Pika6ScriptI19QuickerScriptConfigE5Frame4callERKN8QStrings7QStringIcLm52EEERKNS_8STLValueIS6_EElPSB_, symObjAddr: 0x10554, symBinAddr: 0x1000119F8, symSize: 0x33C }
  - { offset: 0x9B834, size: 0x8, addend: 0x0, symName: __ZNK4Pika6ScriptI19QuickerScriptConfigE5Frame11getOptionalERKN8QStrings7QStringIcLm52EEERKNS_8STLValueIS6_EE, symObjAddr: 0x10890, symBinAddr: 0x100011D34, symSize: 0xFC }
  - { offset: 0x9BBBF, size: 0x8, addend: 0x0, symName: __ZNK4Pika8STLValueIN8QStrings7QStringIcLm52EEEEcvlEv, symObjAddr: 0x23F08, symBinAddr: 0x100024BA4, symSize: 0x184 }
  - { offset: 0x9C036, size: 0x8, addend: 0x0, symName: __ZNSt3__16vectorIN4Pika8STLValueIN8QStrings7QStringIcLm52EEEEENS_9allocatorIS6_EEE16__destroy_vectorclB8ne180100Ev, symObjAddr: 0x2902C, symBinAddr: 0x1000296E4, symSize: 0x70 }
  - { offset: 0x9C1F4, size: 0x8, addend: 0x0, symName: __ZN4Pika6ScriptI19QuickerScriptConfigE12STLVariablesD2Ev, symObjAddr: 0x11130, symBinAddr: 0x1000125D4, symSize: 0xD0 }
  - { offset: 0x9C595, size: 0x8, addend: 0x0, symName: __ZN4Pika6ScriptI19QuickerScriptConfigE8FullRootD1Ev, symObjAddr: 0x1098C, symBinAddr: 0x100011E30, symSize: 0xC0 }
  - { offset: 0x9C9D7, size: 0x8, addend: 0x0, symName: __ZN4Pika9QuickVarsINS_6ScriptI19QuickerScriptConfigE12STLVariablesELj11EE4hashERKN8QStrings7QStringIcLm52EEE, symObjAddr: 0x127B0, symBinAddr: 0x100013C54, symSize: 0x154 }
  - { offset: 0x9CB35, size: 0x8, addend: 0x0, symName: __ZNSt3__14pairIN8QStrings7QStringIcLm52EEEN4Pika8STLValueIS3_EEEaSB8ne180100ERKS7_, symObjAddr: 0x12904, symBinAddr: 0x100013DA8, symSize: 0x70 }
  - { offset: 0x9CB40, size: 0x8, addend: 0x0, symName: __ZNSt3__14pairIN8QStrings7QStringIcLm52EEEN4Pika8STLValueIS3_EEEaSB8ne180100ERKS7_, symObjAddr: 0x12904, symBinAddr: 0x100013DA8, symSize: 0x70 }
  - { offset: 0x9CC4C, size: 0x8, addend: 0x0, symName: __ZNSt3__13mapIKN8QStrings7QStringIcLm52EEEN4Pika8STLValueIS3_EENS_4lessIS4_EENS_9allocatorINS_4pairIS4_S7_EEEEEixERS4_, symObjAddr: 0x11C3C, symBinAddr: 0x1000130E0, symSize: 0x74 }
  - { offset: 0x9D132, size: 0x8, addend: 0x0, symName: __ZNSt3__14pairIN8QStrings7QStringIcLm52EEEN4Pika8STLValueIS3_EEEC2B8ne180100Ev, symObjAddr: 0x1A7A0, symBinAddr: 0x10001B43C, symSize: 0x74 }
  - { offset: 0x9D293, size: 0x8, addend: 0x0, symName: __ZN4Pika6ScriptI19QuickerScriptConfigE5FrameC2ERNS2_9VariablesERNS2_4RootEPS3_, symObjAddr: 0x1A69C, symBinAddr: 0x10001B338, symSize: 0x6C }
  - { offset: 0x9D34E, size: 0x8, addend: 0x0, symName: __ZN4Pika8STLValueIN8QStrings7QStringIcLm52EEEEC2El, symObjAddr: 0x24700, symBinAddr: 0x100024E60, symSize: 0x60 }
  - { offset: 0x9D440, size: 0x8, addend: 0x0, symName: __ZNK4Pika6ScriptI19QuickerScriptConfigE5Frame3getERKN8QStrings7QStringIcLm52EEEb, symObjAddr: 0x1EA08, symBinAddr: 0x10001F6A4, symSize: 0x21C }
  - { offset: 0x9D9A9, size: 0x8, addend: 0x0, symName: __ZN4Pika6ScriptI19QuickerScriptConfigE5Frame7executeERKN8QStrings7QStringIcLm52EEE, symObjAddr: 0x1EF7C, symBinAddr: 0x10001FC18, symSize: 0x36C }
  - { offset: 0x9E3E2, size: 0x8, addend: 0x0, symName: __ZN4Pika9QuickVarsINS_6ScriptI19QuickerScriptConfigE12STLVariablesELj11EED1Ev, symObjAddr: 0x11770, symBinAddr: 0x100012C14, symSize: 0x58 }
  - { offset: 0x9E5DA, size: 0x8, addend: 0x0, symName: __ZNK4Pika6ScriptI19QuickerScriptConfigE5Frame12resolveFrameERKN8QStrings7QStringIcLm52EEE, symObjAddr: 0x1D418, symBinAddr: 0x10001E0B4, symSize: 0xC4 }
  - { offset: 0x9E8F3, size: 0x8, addend: 0x0, symName: __ZN4Pika6ScriptINS_9StdConfigEE4RootD1Ev, symObjAddr: 0x10A4C, symBinAddr: 0x100011EF0, symSize: 0x58 }
  - { offset: 0x9EBF2, size: 0x8, addend: 0x0, symName: __ZN4Pika6ScriptINS_9StdConfigEE4RootD0Ev, symObjAddr: 0x10AA4, symBinAddr: 0x100011F48, symSize: 0x58 }
  - { offset: 0x9EF2D, size: 0x8, addend: 0x0, symName: __ZN4Pika6ScriptINS_9StdConfigEE8FullRootD1Ev, symObjAddr: 0x10AFC, symBinAddr: 0x100011FA0, symSize: 0x90 }
  - { offset: 0x9F3CE, size: 0x8, addend: 0x0, symName: __ZN4Pika6ScriptINS_9StdConfigEE8FullRootD1Ev.cold.1, symObjAddr: 0x2A9FC, symBinAddr: 0x10002B45C, symSize: 0x1C }
  - { offset: 0x9F3E9, size: 0x8, addend: 0x0, symName: __ZN4Pika6ScriptINS_9StdConfigEE8FullRootD1Ev.cold.1, symObjAddr: 0x2A9FC, symBinAddr: 0x10002B45C, symSize: 0x1C }
  - { offset: 0x9F3FE, size: 0x8, addend: 0x0, symName: __ZN4Pika6ScriptINS_9StdConfigEE8FullRootD1Ev.cold.1, symObjAddr: 0x2A9FC, symBinAddr: 0x10002B45C, symSize: 0x1C }
  - { offset: 0x9F413, size: 0x8, addend: 0x0, symName: __ZN4Pika6ScriptINS_9StdConfigEE8FullRootD1Ev.cold.1, symObjAddr: 0x2A9FC, symBinAddr: 0x10002B45C, symSize: 0x1C }
  - { offset: 0x9F487, size: 0x8, addend: 0x0, symName: __ZN4Pika6ScriptINS_9StdConfigEE8FullRootD0Ev, symObjAddr: 0x10B8C, symBinAddr: 0x100012030, symSize: 0x98 }
  - { offset: 0x9F9B0, size: 0x8, addend: 0x0, symName: __ZThn152_N4Pika6ScriptINS_9StdConfigEE8FullRootD1Ev, symObjAddr: 0x10C24, symBinAddr: 0x1000120C8, symSize: 0x9C }
  - { offset: 0x9FFA4, size: 0x8, addend: 0x0, symName: __ZThn152_N4Pika6ScriptINS_9StdConfigEE8FullRootD0Ev, symObjAddr: 0x10CC0, symBinAddr: 0x100012164, symSize: 0xB4 }
  - { offset: 0xA05C1, size: 0x8, addend: 0x0, symName: __ZNSt12length_errorC1B8ne180100EPKc, symObjAddr: 0x10E64, symBinAddr: 0x100012308, symSize: 0x24 }
  - { offset: 0xA0664, size: 0x8, addend: 0x0, symName: __ZN8QStrings7QStringIcLm52EE6BufferD1Ev, symObjAddr: 0x10F24, symBinAddr: 0x1000123C8, symSize: 0x34 }
  - { offset: 0xA06DD, size: 0x8, addend: 0x0, symName: __ZThn152_N4Pika6ScriptI19QuickerScriptConfigE8FullRootD1Ev, symObjAddr: 0x10FE0, symBinAddr: 0x100012484, symSize: 0xB4 }
  - { offset: 0xA0ABA, size: 0x8, addend: 0x0, symName: __ZN4Pika9QuickVarsINS_6ScriptI19QuickerScriptConfigE12STLVariablesELj11EED2Ev, symObjAddr: 0x11094, symBinAddr: 0x100012538, symSize: 0x58 }
  - { offset: 0xA0C55, size: 0x8, addend: 0x0, symName: __ZN4Pika6ScriptI19QuickerScriptConfigE4RootD2Ev, symObjAddr: 0x110EC, symBinAddr: 0x100012590, symSize: 0x44 }
  - { offset: 0xA0EB1, size: 0x8, addend: 0x0, symName: __ZNSt3__16__treeINS_12__value_typeIKN8QStrings7QStringIcLm52EEEPN4Pika6ScriptI19QuickerScriptConfigE6NativeEEENS_19__map_value_compareIS5_SC_NS_4lessIS5_EELb1EEENS_9allocatorISC_EEE7destroyEPNS_11__tree_nodeISC_PvEE, symObjAddr: 0x11B28, symBinAddr: 0x100012FCC, symSize: 0x48 }
  - { offset: 0xA10B1, size: 0x8, addend: 0x0, symName: __ZNSt3__16__treeINS_12__value_typeIKN8QStrings7QStringIcLm52EEEN4Pika8STLValueIS4_EEEENS_19__map_value_compareIS5_S9_NS_4lessIS5_EELb1EEENS_9allocatorIS9_EEE7destroyEPNS_11__tree_nodeIS9_PvEE, symObjAddr: 0x11B70, symBinAddr: 0x100013014, symSize: 0x54 }
  - { offset: 0xA137F, size: 0x8, addend: 0x0, symName: __ZN4Pika9QuickVarsINS_6ScriptI19QuickerScriptConfigE12STLVariablesELj11EE6lookupERKN8QStrings7QStringIcLm52EEERNS_8STLValueIS8_EE, symObjAddr: 0x11200, symBinAddr: 0x1000126A4, symSize: 0x1C0 }
  - { offset: 0xA198D, size: 0x8, addend: 0x0, symName: __ZNSt3__16__treeINS_12__value_typeIKN8QStrings7QStringIcLm52EEEN4Pika8STLValueIS4_EEEENS_19__map_value_compareIS5_S9_NS_4lessIS5_EELb1EEENS_9allocatorIS9_EEE4findIS4_EENS_15__tree_iteratorIS9_PNS_11__tree_nodeIS9_PvEElEERKT_, symObjAddr: 0x11BC4, symBinAddr: 0x100013068, symSize: 0x78 }
  - { offset: 0xA1B6F, size: 0x8, addend: 0x0, symName: __ZN4Pika9QuickVarsINS_6ScriptI19QuickerScriptConfigE12STLVariablesELj11EE5eraseERKN8QStrings7QStringIcLm52EEE, symObjAddr: 0x113C0, symBinAddr: 0x100012864, symSize: 0xB4 }
  - { offset: 0xA1E5A, size: 0x8, addend: 0x0, symName: __ZNSt3__16__treeINS_12__value_typeIKN8QStrings7QStringIcLm52EEEN4Pika8STLValueIS4_EEEENS_19__map_value_compareIS5_S9_NS_4lessIS5_EELb1EEENS_9allocatorIS9_EEE14__erase_uniqueIS4_EEmRKT_, symObjAddr: 0x12034, symBinAddr: 0x1000134D8, symSize: 0x44 }
  - { offset: 0xA1F16, size: 0x8, addend: 0x0, symName: __ZNSt3__14pairIKN8QStrings7QStringIcLm52EEEN4Pika8STLValueIS3_EEEC2B8ne180100Ev, symObjAddr: 0x129E4, symBinAddr: 0x100013E18, symSize: 0x74 }
  - { offset: 0xA2459, size: 0x8, addend: 0x0, symName: __ZN4Pika9QuickVarsINS_6ScriptI19QuickerScriptConfigE12STLVariablesELj11EE4listERKN8QStrings7QStringIcLm52EEERNSt3__16vectorINSB_4pairIS8_NS_8STLValueIS8_EEEENSB_9allocatorISG_EEEE, symObjAddr: 0x11474, symBinAddr: 0x100012918, symSize: 0x22C }
  - { offset: 0xA2DA5, size: 0x8, addend: 0x0, symName: __ZN8QStrings7QStringIcLm52EEC2ERKS1_mm, symObjAddr: 0x18B7C, symBinAddr: 0x100019818, symSize: 0x48 }
  - { offset: 0xA2E01, size: 0x8, addend: 0x0, symName: __ZNK8QStrings7QStringIcLm52EE6concatEPKcm, symObjAddr: 0x18BC4, symBinAddr: 0x100019860, symSize: 0xBC }
  - { offset: 0xA2E0C, size: 0x8, addend: 0x0, symName: __ZNSt3__16vectorINS_4pairIN8QStrings7QStringIcLm52EEEN4Pika8STLValueIS4_EEEENS_9allocatorIS8_EEE21__push_back_slow_pathIS8_EEPS8_OT_, symObjAddr: 0x124B8, symBinAddr: 0x10001395C, symSize: 0x134 }
  - { offset: 0xA3212, size: 0x8, addend: 0x0, symName: __ZN4Pika6ScriptI19QuickerScriptConfigE12STLVariables12lookupNativeERKN8QStrings7QStringIcLm52EEE, symObjAddr: 0x116A0, symBinAddr: 0x100012B44, symSize: 0x3C }
  - { offset: 0xA3495, size: 0x8, addend: 0x0, symName: __ZN4Pika6ScriptI19QuickerScriptConfigE12STLVariables12assignNativeERKN8QStrings7QStringIcLm52EEEPNS2_6NativeE, symObjAddr: 0x116DC, symBinAddr: 0x100012B80, symSize: 0x94 }
  - { offset: 0xA370B, size: 0x8, addend: 0x0, symName: __ZNSt3__16__treeINS_12__value_typeIKN8QStrings7QStringIcLm52EEEPN4Pika6ScriptI19QuickerScriptConfigE6NativeEEENS_19__map_value_compareIS5_SC_NS_4lessIS5_EELb1EEENS_9allocatorISC_EEE25__emplace_unique_key_argsIS4_JRKNS_4pairIS5_SB_EEEEENSL_INS_15__tree_iteratorISC_PNS_11__tree_nodeISC_PvEElEEbEERKT_DpOT0_, symObjAddr: 0x12AD0, symBinAddr: 0x100013E8C, symSize: 0xC4 }
  - { offset: 0xA3ADF, size: 0x8, addend: 0x0, symName: __ZN4Pika9QuickVarsINS_6ScriptI19QuickerScriptConfigE12STLVariablesELj11EED0Ev, symObjAddr: 0x117C8, symBinAddr: 0x100012C6C, symSize: 0x74 }
  - { offset: 0xA3CF4, size: 0x8, addend: 0x0, symName: __ZN4Pika6ScriptI19QuickerScriptConfigE12STLVariables6lookupERKN8QStrings7QStringIcLm52EEERNS_8STLValueIS6_EE, symObjAddr: 0x1183C, symBinAddr: 0x100012CE0, symSize: 0x70 }
  - { offset: 0xA3E74, size: 0x8, addend: 0x0, symName: __ZN4Pika6ScriptI19QuickerScriptConfigE12STLVariables6assignERKN8QStrings7QStringIcLm52EEERKNS_8STLValueIS6_EE, symObjAddr: 0x118AC, symBinAddr: 0x100012D50, symSize: 0x50 }
  - { offset: 0xA3F41, size: 0x8, addend: 0x0, symName: __ZN4Pika6ScriptI19QuickerScriptConfigE12STLVariables5eraseERKN8QStrings7QStringIcLm52EEE, symObjAddr: 0x118FC, symBinAddr: 0x100012DA0, symSize: 0x20 }
  - { offset: 0xA3FB1, size: 0x8, addend: 0x0, symName: __ZN4Pika6ScriptI19QuickerScriptConfigE12STLVariables4listERKN8QStrings7QStringIcLm52EEERNSt3__16vectorINS9_4pairIS6_NS_8STLValueIS6_EEEENS9_9allocatorISE_EEEE, symObjAddr: 0x1191C, symBinAddr: 0x100012DC0, symSize: 0x1D0 }
  - { offset: 0xA47CA, size: 0x8, addend: 0x0, symName: __ZN4Pika6ScriptI19QuickerScriptConfigE12STLVariablesD1Ev, symObjAddr: 0x11AEC, symBinAddr: 0x100012F90, symSize: 0x4 }
  - { offset: 0xA47EC, size: 0x8, addend: 0x0, symName: __ZN4Pika6ScriptI19QuickerScriptConfigE12STLVariablesD1Ev, symObjAddr: 0x11AEC, symBinAddr: 0x100012F90, symSize: 0x4 }
  - { offset: 0xA481B, size: 0x8, addend: 0x0, symName: __ZN4Pika6ScriptI19QuickerScriptConfigE12STLVariablesD0Ev, symObjAddr: 0x11AF0, symBinAddr: 0x100012F94, symSize: 0x38 }
  - { offset: 0xA4A39, size: 0x8, addend: 0x0, symName: __ZNSt3__16__treeINS_12__value_typeIKN8QStrings7QStringIcLm52EEEN4Pika8STLValueIS4_EEEENS_19__map_value_compareIS5_S9_NS_4lessIS5_EELb1EEENS_9allocatorIS9_EEE12__find_equalIS4_EERPNS_16__tree_node_baseIPvEERPNS_15__tree_end_nodeISL_EERKT_, symObjAddr: 0x11CB0, symBinAddr: 0x100013154, symSize: 0x90 }
  - { offset: 0xA4BB0, size: 0x8, addend: 0x0, symName: __ZNSt3__13mapIKN8QStrings7QStringIcLm52EEEN4Pika8STLValueIS3_EENS_4lessIS4_EENS_9allocatorINS_4pairIS4_S7_EEEEE25__construct_node_with_keyERS4_, symObjAddr: 0x11D40, symBinAddr: 0x1000131E4, symSize: 0xB4 }
  - { offset: 0xA4F62, size: 0x8, addend: 0x0, symName: __ZNSt3__16__treeINS_12__value_typeIKN8QStrings7QStringIcLm52EEEN4Pika8STLValueIS4_EEEENS_19__map_value_compareIS5_S9_NS_4lessIS5_EELb1EEENS_9allocatorIS9_EEE16__insert_node_atEPNS_15__tree_end_nodeIPNS_16__tree_node_baseIPvEEEERSL_SL_, symObjAddr: 0x11DF4, symBinAddr: 0x100013298, symSize: 0x54 }
  - { offset: 0xA52CE, size: 0x8, addend: 0x0, symName: __ZNSt3__121__map_node_destructorINS_9allocatorINS_11__tree_nodeINS_12__value_typeIKN8QStrings7QStringIcLm52EEEN4Pika8STLValueIS6_EEEEPvEEEEEclB8ne180100EPSD_, symObjAddr: 0x11FE0, symBinAddr: 0x100013484, symSize: 0x54 }
  - { offset: 0xA558B, size: 0x8, addend: 0x0, symName: __ZNSt3__16__treeINS_12__value_typeIKN8QStrings7QStringIcLm52EEEN4Pika8STLValueIS4_EEEENS_19__map_value_compareIS5_S9_NS_4lessIS5_EELb1EEENS_9allocatorIS9_EEE5eraseENS_21__tree_const_iteratorIS9_PNS_11__tree_nodeIS9_PvEElEE, symObjAddr: 0x12078, symBinAddr: 0x10001351C, symSize: 0x4C }
  - { offset: 0xA582A, size: 0x8, addend: 0x0, symName: __ZNSt3__16__treeINS_12__value_typeIKN8QStrings7QStringIcLm52EEEN4Pika8STLValueIS4_EEEENS_19__map_value_compareIS5_S9_NS_4lessIS5_EELb1EEENS_9allocatorIS9_EEE21__remove_node_pointerEPNS_11__tree_nodeIS9_PvEE, symObjAddr: 0x120C4, symBinAddr: 0x100013568, symSize: 0x70 }
  - { offset: 0xA5AEA, size: 0x8, addend: 0x0, symName: __ZNSt3__114__split_bufferINS_4pairIN8QStrings7QStringIcLm52EEEN4Pika8STLValueIS4_EEEERNS_9allocatorIS8_EEED2Ev, symObjAddr: 0x12724, symBinAddr: 0x100013BC8, symSize: 0x34 }
  - { offset: 0xA5BEC, size: 0x8, addend: 0x0, symName: __ZNKSt3__16vectorINS_4pairIN8QStrings7QStringIcLm52EEEN4Pika8STLValueIS4_EEEENS_9allocatorIS8_EEE20__throw_length_errorB8ne180100Ev, symObjAddr: 0x12660, symBinAddr: 0x100013B04, symSize: 0x14 }
  - { offset: 0xA5C15, size: 0x8, addend: 0x0, symName: __ZNSt3__119__allocate_at_leastB8ne180100INS_9allocatorINS_4pairIN8QStrings7QStringIcLm52EEEN4Pika8STLValueIS5_EEEEEEEENS_19__allocation_resultINS_16allocator_traitsIT_E7pointerEEERSD_m, symObjAddr: 0x12674, symBinAddr: 0x100013B18, symSize: 0x44 }
  - { offset: 0xA5DBD, size: 0x8, addend: 0x0, symName: __ZNSt3__114__split_bufferINS_4pairIN8QStrings7QStringIcLm52EEEN4Pika8STLValueIS4_EEEERNS_9allocatorIS8_EEE17__destruct_at_endB8ne180100EPS8_, symObjAddr: 0x12758, symBinAddr: 0x100013BFC, symSize: 0x58 }
  - { offset: 0xA5FB2, size: 0x8, addend: 0x0, symName: __ZN4Pika9QuickVarsINS_6ScriptI19QuickerScriptConfigE12STLVariablesELj11EE4hashERKN8QStrings7QStringIcLm52EEE.cold.1, symObjAddr: 0x2AA34, symBinAddr: 0x10002B478, symSize: 0x24 }
  - { offset: 0xA64FC, size: 0x8, addend: 0x0, symName: __ZNSt3__110unique_ptrINS_11__tree_nodeINS_12__value_typeIKN8QStrings7QStringIcLm52EEEPN4Pika6ScriptI19QuickerScriptConfigE6NativeEEEPvEENS_22__tree_node_destructorINS_9allocatorISF_EEEEE5resetB8ne180100EPSF_, symObjAddr: 0x12C78, symBinAddr: 0x100013F50, symSize: 0x44 }
  - { offset: 0xA671F, size: 0x8, addend: 0x0, symName: __ZN4Pika6ScriptI19QuickerScriptConfigE4RootD1Ev, symObjAddr: 0x12CBC, symBinAddr: 0x100013F94, symSize: 0x44 }
  - { offset: 0xA6841, size: 0x8, addend: 0x0, symName: __ZN4Pika6ScriptI19QuickerScriptConfigE4RootD0Ev, symObjAddr: 0x12D00, symBinAddr: 0x100013FD8, symSize: 0x44 }
  - { offset: 0xA69DE, size: 0x8, addend: 0x0, symName: __ZN4Pika6ScriptI19QuickerScriptConfigE4Root5traceERNS2_5FrameERKN8QStrings7QStringIcLm52EEEmbRKNS_8STLValueIS8_EENS_10PrecedenceEb, symObjAddr: 0x12D44, symBinAddr: 0x10001401C, symSize: 0x260 }
  - { offset: 0xA710D, size: 0x8, addend: 0x0, symName: __ZN4Pika8STLValueIN8QStrings7QStringIcLm52EEEEC2Em, symObjAddr: 0x13050, symBinAddr: 0x100014328, symSize: 0x60 }
  - { offset: 0xA71FF, size: 0x8, addend: 0x0, symName: __ZN4Pika8STLValueIN8QStrings7QStringIcLm52EEEEC2Eb, symObjAddr: 0x131A0, symBinAddr: 0x100014478, symSize: 0x84 }
  - { offset: 0xA72D9, size: 0x8, addend: 0x0, symName: __ZN4Pika6ScriptI19QuickerScriptConfigE4Root9setTracerENS_10PrecedenceERKNS_8STLValueIN8QStrings7QStringIcLm52EEEEE, symObjAddr: 0x12FA4, symBinAddr: 0x10001427C, symSize: 0x4C }
  - { offset: 0xA7397, size: 0x8, addend: 0x0, symName: __ZN4Pika6ScriptI19QuickerScriptConfigE5FrameD1Ev, symObjAddr: 0x12FF0, symBinAddr: 0x1000142C8, symSize: 0x30 }
  - { offset: 0xA741D, size: 0x8, addend: 0x0, symName: __ZN4Pika6ScriptI19QuickerScriptConfigE5FrameD0Ev, symObjAddr: 0x13020, symBinAddr: 0x1000142F8, symSize: 0x30 }
  - { offset: 0xA750E, size: 0x8, addend: 0x0, symName: __ZN4Pika9ExceptionINSt3__112basic_stringIcNS1_11char_traitsIcEENS1_9allocatorIcEEEEED0Ev, symObjAddr: 0x13344, symBinAddr: 0x10001461C, symSize: 0x14 }
  - { offset: 0xA7575, size: 0x8, addend: 0x0, symName: __ZNK4Pika9ExceptionINSt3__112basic_stringIcNS1_11char_traitsIcEENS1_9allocatorIcEEEEE4whatEv, symObjAddr: 0x13358, symBinAddr: 0x100014630, symSize: 0xAC }
  - { offset: 0xA78D5, size: 0x8, addend: 0x0, symName: __ZNK4Pika9ExceptionINSt3__112basic_stringIcNS1_11char_traitsIcEENS1_9allocatorIcEEEEE8getErrorEv, symObjAddr: 0x13404, symBinAddr: 0x1000146DC, symSize: 0x40 }
  - { offset: 0xA7AE6, size: 0x8, addend: 0x0, symName: __ZN4Pika12stringToLongINSt3__112basic_stringIcNS1_11char_traitsIcEENS1_9allocatorIcEEEEEElRNT_14const_iteratorERKS9_.cold.1, symObjAddr: 0x2AB78, symBinAddr: 0x10002B49C, symSize: 0x24 }
  - { offset: 0xA7B26, size: 0x8, addend: 0x0, symName: __ZN4Pika6ScriptINS_9StdConfigEE5Frame8binaryOpINSt3__14plusIdEEEEbRNS5_11__wrap_iterIPKcEERKSB_RNS5_4pairIbNS_8STLValueINS5_12basic_stringIcNS5_11char_traitsIcEENS5_9allocatorIcEEEEEEEEbNS_10PrecedenceEiSQ_T_, symObjAddr: 0x144E4, symBinAddr: 0x10001542C, symSize: 0x20C }
  - { offset: 0xA8E1F, size: 0x8, addend: 0x0, symName: __ZN4Pika6ScriptINS_9StdConfigEE5Frame8binaryOpINSt3__15minusIdEEEEbRNS5_11__wrap_iterIPKcEERKSB_RNS5_4pairIbNS_8STLValueINS5_12basic_stringIcNS5_11char_traitsIcEENS5_9allocatorIcEEEEEEEEbNS_10PrecedenceEiSQ_T_, symObjAddr: 0x14958, symBinAddr: 0x1000158A0, symSize: 0x20C }
  - { offset: 0xAA17C, size: 0x8, addend: 0x0, symName: __ZN4Pika6ScriptINS_9StdConfigEE5Frame8binaryOpIPFmmiEEEbRNSt3__111__wrap_iterIPKcEERKSB_RNS7_4pairIbNS_8STLValueINS7_12basic_stringIcNS7_11char_traitsIcEENS7_9allocatorIcEEEEEEEEbNS_10PrecedenceEiSQ_T_, symObjAddr: 0x15C5C, symBinAddr: 0x100016BA4, symSize: 0x214 }
  - { offset: 0xAB4EB, size: 0x8, addend: 0x0, symName: __ZNK4Pika8STLValueINSt3__112basic_stringIcNS1_11char_traitsIcEENS1_9allocatorIcEEEEEltERKS8_, symObjAddr: 0x15E70, symBinAddr: 0x100016DB8, symSize: 0xB8 }
  - { offset: 0xABBE7, size: 0x8, addend: 0x0, symName: __ZNSt3__121__map_node_destructorINS_9allocatorINS_11__tree_nodeINS_12__value_typeIKNS_12basic_stringIcNS_11char_traitsIcEENS1_IcEEEEN4Pika8STLValueIS8_EEEEPvEEEEEclB8ne180100EPSF_, symObjAddr: 0x16860, symBinAddr: 0x100017754, symSize: 0x68 }
  - { offset: 0xAC306, size: 0x8, addend: 0x0, symName: __ZNSt3__114__split_bufferINS_4pairINS_12basic_stringIcNS_11char_traitsIcEENS_9allocatorIcEEEEN4Pika8STLValueIS7_EEEERNS5_ISB_EEED2Ev, symObjAddr: 0x16D74, symBinAddr: 0x100017BA0, symSize: 0x34 }
  - { offset: 0xAC5BB, size: 0x8, addend: 0x0, symName: __ZNSt3__14pairINS_12basic_stringIcNS_11char_traitsIcEENS_9allocatorIcEEEEN4Pika8STLValueIS6_EEEC2B8ne180100ERKSA_, symObjAddr: 0x16C9C, symBinAddr: 0x100017AC8, symSize: 0x94 }
  - { offset: 0xAC82B, size: 0x8, addend: 0x0, symName: __ZNSt3__19allocatorINS_4pairINS_12basic_stringIcNS_11char_traitsIcEENS0_IcEEEEN4Pika8STLValueIS6_EEEEE7destroyB8ne180100EPSA_, symObjAddr: 0x16D30, symBinAddr: 0x100017B5C, symSize: 0x44 }
  - { offset: 0xACB54, size: 0x8, addend: 0x0, symName: __ZNSt3__114__split_bufferINS_4pairINS_12basic_stringIcNS_11char_traitsIcEENS_9allocatorIcEEEEN4Pika8STLValueIS7_EEEERNS5_ISB_EEE17__destruct_at_endB8ne180100EPSB_, symObjAddr: 0x16DA8, symBinAddr: 0x100017BD4, symSize: 0x44 }
  - { offset: 0xACE71, size: 0x8, addend: 0x0, symName: __ZNSt3__16__treeINS_12__value_typeIKNS_12basic_stringIcNS_11char_traitsIcEENS_9allocatorIcEEEEPN4Pika6ScriptINS9_9StdConfigEE6NativeEEENS_19__map_value_compareIS8_SF_NS_4lessIS8_EELb1EEENS5_ISF_EEE16__construct_nodeIJRKNS_4pairIS8_SE_EEEEENS_10unique_ptrINS_11__tree_nodeISF_PvEENS_22__tree_node_destructorINS5_ISU_EEEEEEDpOT_, symObjAddr: 0x17024, symBinAddr: 0x100017D28, symSize: 0xA4 }
  - { offset: 0xAD513, size: 0x8, addend: 0x0, symName: __ZNSt3__122__tree_node_destructorINS_9allocatorINS_11__tree_nodeINS_12__value_typeIKNS_12basic_stringIcNS_11char_traitsIcEENS1_IcEEEEPN4Pika6ScriptINSA_9StdConfigEE6NativeEEEPvEEEEEclB8ne180100EPSI_, symObjAddr: 0x1711C, symBinAddr: 0x100017DCC, symSize: 0x4C }
  - { offset: 0xAD7CB, size: 0x8, addend: 0x0, symName: __ZNSt3__112basic_stringIcNS_11char_traitsIcEENS_9allocatorIcEEEC2B8ne180100Emc, symObjAddr: 0x171FC, symBinAddr: 0x100017EAC, symSize: 0xA8 }
  - { offset: 0xADA02, size: 0x8, addend: 0x0, symName: __ZNSt3__16vectorINS_4pairINS_12basic_stringIcNS_11char_traitsIcEENS_9allocatorIcEEEEN4Pika8STLValueIS7_EEEENS5_ISB_EEE16__destroy_vectorclB8ne180100Ev, symObjAddr: 0x172A4, symBinAddr: 0x100017F54, symSize: 0x40 }
  - { offset: 0xADA2A, size: 0x8, addend: 0x0, symName: __ZNSt3__16vectorINS_4pairINS_12basic_stringIcNS_11char_traitsIcEENS_9allocatorIcEEEEN4Pika8STLValueIS7_EEEENS5_ISB_EEE22__base_destruct_at_endB8ne180100EPSB_, symObjAddr: 0x172E4, symBinAddr: 0x100017F94, symSize: 0x54 }
  - { offset: 0xADE84, size: 0x8, addend: 0x0, symName: __ZNSt3__16vectorIN4Pika8STLValueINS_12basic_stringIcNS_11char_traitsIcEENS_9allocatorIcEEEEEENS6_IS9_EEE11__vallocateB8ne180100Em, symObjAddr: 0x17800, symBinAddr: 0x1000184B0, symSize: 0x50 }
  - { offset: 0xADF3D, size: 0x8, addend: 0x0, symName: __ZNSt3__119__allocate_at_leastB8ne180100INS_9allocatorIN4Pika8STLValueINS_12basic_stringIcNS_11char_traitsIcEENS1_IcEEEEEEEEEENS_19__allocation_resultINS_16allocator_traitsIT_E7pointerEEERSD_m, symObjAddr: 0x17864, symBinAddr: 0x100018500, symSize: 0x44 }
  - { offset: 0xADFC4, size: 0x8, addend: 0x0, symName: __ZNSt3__16vectorIN4Pika8STLValueINS_12basic_stringIcNS_11char_traitsIcEENS_9allocatorIcEEEEEENS6_IS9_EEE7__clearB8ne180100Ev, symObjAddr: 0x178E8, symBinAddr: 0x100018584, symSize: 0x4C }
  - { offset: 0xAE262, size: 0x8, addend: 0x0, symName: __ZN4Pika6ScriptINS_9StdConfigEE12UnaryFunctorINSt3__125pointer_to_unary_functionIddEEddE8pikaCallERNS2_5FrameE, symObjAddr: 0x179B0, symBinAddr: 0x10001864C, symSize: 0x78 }
  - { offset: 0xAE603, size: 0x8, addend: 0x0, symName: __ZN4Pika6ScriptINS_9StdConfigEE12UnaryFunctorINSt3__125pointer_to_unary_functionIddEEddE3argINS_4DumbIdEEEEKNS_8STLValueINS4_12basic_stringIcNS4_11char_traitsIcEENS4_9allocatorIcEEEEEERNS2_5FrameERKT_, symObjAddr: 0x17A30, symBinAddr: 0x1000186CC, symSize: 0x78 }
  - { offset: 0xAE913, size: 0x8, addend: 0x0, symName: __ZN4Pika6ScriptINS_9StdConfigEE12UnaryFunctorINSt3__125pointer_to_unary_functionIddEEddED1Ev, symObjAddr: 0x17A28, symBinAddr: 0x1000186C4, symSize: 0x4 }
  - { offset: 0xAE93F, size: 0x8, addend: 0x0, symName: __ZN4Pika6ScriptINS_9StdConfigEE12UnaryFunctorINSt3__125pointer_to_unary_functionIddEEddED0Ev, symObjAddr: 0x17A2C, symBinAddr: 0x1000186C8, symSize: 0x4 }
  - { offset: 0xAE96D, size: 0x8, addend: 0x0, symName: __ZN4Pika6ScriptINS_9StdConfigEE12UnaryFunctorINSt3__125pointer_to_unary_functionIddEEddED0Ev, symObjAddr: 0x17A2C, symBinAddr: 0x1000186C8, symSize: 0x4 }
  - { offset: 0xAE980, size: 0x8, addend: 0x0, symName: __ZN4Pika6ScriptINS_9StdConfigEE13BinaryFunctorINSt3__126pointer_to_binary_functionIdddEEdddE8pikaCallERNS2_5FrameE, symObjAddr: 0x17AA8, symBinAddr: 0x100018744, symSize: 0x138 }
  - { offset: 0xAF4CE, size: 0x8, addend: 0x0, symName: __ZN4Pika6ScriptINS_9StdConfigEE13BinaryFunctorINSt3__126pointer_to_binary_functionIdddEEdddE4callINS_4DumbIdEEEENS_8STLValueINS4_12basic_stringIcNS4_11char_traitsIcEENS4_9allocatorIcEEEEEERKSI_SK_RKT_, symObjAddr: 0x17BE8, symBinAddr: 0x100018884, symSize: 0x5C }
  - { offset: 0xAF5C3, size: 0x8, addend: 0x0, symName: __ZN4Pika6ScriptINS_9StdConfigEE13BinaryFunctorINSt3__126pointer_to_binary_functionIdddEEdddED1Ev, symObjAddr: 0x17BE0, symBinAddr: 0x10001887C, symSize: 0x4 }
  - { offset: 0xAF5EF, size: 0x8, addend: 0x0, symName: __ZN4Pika6ScriptINS_9StdConfigEE13BinaryFunctorINSt3__126pointer_to_binary_functionIdddEEdddED0Ev, symObjAddr: 0x17BE4, symBinAddr: 0x100018880, symSize: 0x4 }
  - { offset: 0xAF61D, size: 0x8, addend: 0x0, symName: __ZN4Pika6ScriptINS_9StdConfigEE13BinaryFunctorINSt3__126pointer_to_binary_functionIdddEEdddED0Ev, symObjAddr: 0x17BE4, symBinAddr: 0x100018880, symSize: 0x4 }
  - { offset: 0xAF664, size: 0x8, addend: 0x0, symName: __ZN4Pika6ScriptINS_9StdConfigEE12UnaryFunctorINSt3__125pointer_to_unary_functionIdNS4_12basic_stringIcNS4_11char_traitsIcEENS4_9allocatorIcEEEEEEdSB_E8pikaCallERNS2_5FrameE, symObjAddr: 0x17C44, symBinAddr: 0x1000188E0, symSize: 0x74 }
  - { offset: 0xAF985, size: 0x8, addend: 0x0, symName: __ZN4Pika6ScriptINS_9StdConfigEE12UnaryFunctorINSt3__125pointer_to_unary_functionIdNS4_12basic_stringIcNS4_11char_traitsIcEENS4_9allocatorIcEEEEEEdSB_E3argINS_4DumbIdEEEEKNS_8STLValueISB_EERNS2_5FrameERKT_, symObjAddr: 0x17D50, symBinAddr: 0x1000189EC, symSize: 0x78 }
  - { offset: 0xAFCA0, size: 0x8, addend: 0x0, symName: __ZN4Pika6ScriptINS_9StdConfigEE12UnaryFunctorINSt3__125pointer_to_unary_functionIdNS4_12basic_stringIcNS4_11char_traitsIcEENS4_9allocatorIcEEEEEEdSB_E4callIKNS_8STLValueISB_EESB_EESG_RT_RKNS_4DumbIT0_EE, symObjAddr: 0x17CC0, symBinAddr: 0x10001895C, symSize: 0x90 }
  - { offset: 0xB004A, size: 0x8, addend: 0x0, symName: __ZN4Pika6ScriptINS_9StdConfigEE12UnaryFunctorINSt3__125pointer_to_unary_functionIdNS4_12basic_stringIcNS4_11char_traitsIcEENS4_9allocatorIcEEEEEEdSB_ED1Ev, symObjAddr: 0x17CB8, symBinAddr: 0x100018954, symSize: 0x4 }
  - { offset: 0xB0076, size: 0x8, addend: 0x0, symName: __ZN4Pika6ScriptINS_9StdConfigEE12UnaryFunctorINSt3__125pointer_to_unary_functionIdNS4_12basic_stringIcNS4_11char_traitsIcEENS4_9allocatorIcEEEEEEdSB_ED0Ev, symObjAddr: 0x17CBC, symBinAddr: 0x100018958, symSize: 0x4 }
  - { offset: 0xB00A4, size: 0x8, addend: 0x0, symName: __ZN4Pika6ScriptINS_9StdConfigEE12UnaryFunctorINSt3__125pointer_to_unary_functionIdNS4_12basic_stringIcNS4_11char_traitsIcEENS4_9allocatorIcEEEEEEdSB_ED0Ev, symObjAddr: 0x17CBC, symBinAddr: 0x100018958, symSize: 0x4 }
  - { offset: 0xB014F, size: 0x8, addend: 0x0, symName: __ZN4Pika6ScriptINS_9StdConfigEE12UnaryFunctorINSt3__125pointer_to_unary_functionIRKNS2_5FrameEbEES8_bE8pikaCallERS6_, symObjAddr: 0x17DC8, symBinAddr: 0x100018A64, symSize: 0x30 }
  - { offset: 0xB0216, size: 0x8, addend: 0x0, symName: __ZN4Pika6ScriptINS_9StdConfigEE12UnaryFunctorINSt3__125pointer_to_unary_functionIRKNS2_5FrameEbEES8_bED1Ev, symObjAddr: 0x17DF8, symBinAddr: 0x100018A94, symSize: 0x4 }
  - { offset: 0xB0242, size: 0x8, addend: 0x0, symName: __ZN4Pika6ScriptINS_9StdConfigEE12UnaryFunctorINSt3__125pointer_to_unary_functionIRKNS2_5FrameEbEES8_bED0Ev, symObjAddr: 0x17DFC, symBinAddr: 0x100018A98, symSize: 0x4 }
  - { offset: 0xB0270, size: 0x8, addend: 0x0, symName: __ZN4Pika6ScriptINS_9StdConfigEE12UnaryFunctorINSt3__125pointer_to_unary_functionIRKNS2_5FrameEbEES8_bED0Ev, symObjAddr: 0x17DFC, symBinAddr: 0x100018A98, symSize: 0x4 }
  - { offset: 0xB0283, size: 0x8, addend: 0x0, symName: __ZN4Pika6ScriptINS_9StdConfigEE12UnaryFunctorINSt3__125pointer_to_unary_functionIRKNS4_12basic_stringIcNS4_11char_traitsIcEENS4_9allocatorIcEEEESB_EESD_SB_E8pikaCallERNS2_5FrameE, symObjAddr: 0x17E00, symBinAddr: 0x100018A9C, symSize: 0x74 }
  - { offset: 0xB05AF, size: 0x8, addend: 0x0, symName: __ZN4Pika6ScriptINS_9StdConfigEE12UnaryFunctorINSt3__125pointer_to_unary_functionIRKNS4_12basic_stringIcNS4_11char_traitsIcEENS4_9allocatorIcEEEESB_EESD_SB_E3argINS_4DumbISD_EEEEKNS_8STLValueISB_EERNS2_5FrameERKT_, symObjAddr: 0x17F04, symBinAddr: 0x100018BA0, symSize: 0x78 }
  - { offset: 0xB08BF, size: 0x8, addend: 0x0, symName: __ZN4Pika6ScriptINS_9StdConfigEE12UnaryFunctorINSt3__125pointer_to_unary_functionIRKNS4_12basic_stringIcNS4_11char_traitsIcEENS4_9allocatorIcEEEESB_EESD_SB_E4callIKNS_8STLValueISB_EESB_EESI_RT_RKNS_4DumbIT0_EE, symObjAddr: 0x17E7C, symBinAddr: 0x100018B18, symSize: 0x88 }
  - { offset: 0xB0C5A, size: 0x8, addend: 0x0, symName: __ZN4Pika6ScriptINS_9StdConfigEE12UnaryFunctorINSt3__125pointer_to_unary_functionIRKNS4_12basic_stringIcNS4_11char_traitsIcEENS4_9allocatorIcEEEESB_EESD_SB_ED1Ev, symObjAddr: 0x17E74, symBinAddr: 0x100018B10, symSize: 0x4 }
  - { offset: 0xB0C86, size: 0x8, addend: 0x0, symName: __ZN4Pika6ScriptINS_9StdConfigEE12UnaryFunctorINSt3__125pointer_to_unary_functionIRKNS4_12basic_stringIcNS4_11char_traitsIcEENS4_9allocatorIcEEEESB_EESD_SB_ED0Ev, symObjAddr: 0x17E78, symBinAddr: 0x100018B14, symSize: 0x4 }
  - { offset: 0xB0CB4, size: 0x8, addend: 0x0, symName: __ZN4Pika6ScriptINS_9StdConfigEE12UnaryFunctorINSt3__125pointer_to_unary_functionIRKNS4_12basic_stringIcNS4_11char_traitsIcEENS4_9allocatorIcEEEESB_EESD_SB_ED0Ev, symObjAddr: 0x17E78, symBinAddr: 0x100018B14, symSize: 0x4 }
  - { offset: 0xB0D5F, size: 0x8, addend: 0x0, symName: __ZN4Pika6ScriptINS_9StdConfigEE12UnaryFunctorINSt3__125pointer_to_unary_functionIRNS2_5FrameENS_8STLValueINS4_12basic_stringIcNS4_11char_traitsIcEENS4_9allocatorIcEEEEEEEES7_SF_E8pikaCallES7_, symObjAddr: 0x17F7C, symBinAddr: 0x100018C18, symSize: 0xC }
  - { offset: 0xB0D98, size: 0x8, addend: 0x0, symName: __ZN4Pika6ScriptINS_9StdConfigEE12UnaryFunctorINSt3__125pointer_to_unary_functionIRNS2_5FrameENS_8STLValueINS4_12basic_stringIcNS4_11char_traitsIcEENS4_9allocatorIcEEEEEEEES7_SF_E8pikaCallES7_, symObjAddr: 0x17F7C, symBinAddr: 0x100018C18, symSize: 0xC }
  - { offset: 0xB0DBF, size: 0x8, addend: 0x0, symName: __ZN4Pika6ScriptINS_9StdConfigEE12UnaryFunctorINSt3__125pointer_to_unary_functionIRNS2_5FrameENS_8STLValueINS4_12basic_stringIcNS4_11char_traitsIcEENS4_9allocatorIcEEEEEEEES7_SF_E8pikaCallES7_, symObjAddr: 0x17F7C, symBinAddr: 0x100018C18, symSize: 0xC }
  - { offset: 0xB0DFF, size: 0x8, addend: 0x0, symName: __ZN4Pika6ScriptINS_9StdConfigEE12UnaryFunctorINSt3__125pointer_to_unary_functionIRNS2_5FrameENS_8STLValueINS4_12basic_stringIcNS4_11char_traitsIcEENS4_9allocatorIcEEEEEEEES7_SF_ED1Ev, symObjAddr: 0x17F88, symBinAddr: 0x100018C24, symSize: 0x4 }
  - { offset: 0xB0E2B, size: 0x8, addend: 0x0, symName: __ZN4Pika6ScriptINS_9StdConfigEE12UnaryFunctorINSt3__125pointer_to_unary_functionIRNS2_5FrameENS_8STLValueINS4_12basic_stringIcNS4_11char_traitsIcEENS4_9allocatorIcEEEEEEEES7_SF_ED0Ev, symObjAddr: 0x17F8C, symBinAddr: 0x100018C28, symSize: 0x4 }
  - { offset: 0xB0E59, size: 0x8, addend: 0x0, symName: __ZN4Pika6ScriptINS_9StdConfigEE12UnaryFunctorINSt3__125pointer_to_unary_functionIRNS2_5FrameENS_8STLValueINS4_12basic_stringIcNS4_11char_traitsIcEENS4_9allocatorIcEEEEEEEES7_SF_ED0Ev, symObjAddr: 0x17F8C, symBinAddr: 0x100018C28, symSize: 0x4 }
  - { offset: 0xB0ED1, size: 0x8, addend: 0x0, symName: __ZN4Pika6ScriptINS_9StdConfigEE12UnaryFunctorINSt3__125pointer_to_unary_functionIRKNS2_5FrameENS_8STLValueINS4_12basic_stringIcNS4_11char_traitsIcEENS4_9allocatorIcEEEEEEEES8_SG_E8pikaCallERS6_, symObjAddr: 0x17F90, symBinAddr: 0x100018C2C, symSize: 0xC }
  - { offset: 0xB0F0A, size: 0x8, addend: 0x0, symName: __ZN4Pika6ScriptINS_9StdConfigEE12UnaryFunctorINSt3__125pointer_to_unary_functionIRKNS2_5FrameENS_8STLValueINS4_12basic_stringIcNS4_11char_traitsIcEENS4_9allocatorIcEEEEEEEES8_SG_E8pikaCallERS6_, symObjAddr: 0x17F90, symBinAddr: 0x100018C2C, symSize: 0xC }
  - { offset: 0xB0F31, size: 0x8, addend: 0x0, symName: __ZN4Pika6ScriptINS_9StdConfigEE12UnaryFunctorINSt3__125pointer_to_unary_functionIRKNS2_5FrameENS_8STLValueINS4_12basic_stringIcNS4_11char_traitsIcEENS4_9allocatorIcEEEEEEEES8_SG_E8pikaCallERS6_, symObjAddr: 0x17F90, symBinAddr: 0x100018C2C, symSize: 0xC }
  - { offset: 0xB0F71, size: 0x8, addend: 0x0, symName: __ZN4Pika6ScriptINS_9StdConfigEE12UnaryFunctorINSt3__125pointer_to_unary_functionIRKNS2_5FrameENS_8STLValueINS4_12basic_stringIcNS4_11char_traitsIcEENS4_9allocatorIcEEEEEEEES8_SG_ED1Ev, symObjAddr: 0x17F9C, symBinAddr: 0x100018C38, symSize: 0x4 }
  - { offset: 0xB0F9D, size: 0x8, addend: 0x0, symName: __ZN4Pika6ScriptINS_9StdConfigEE12UnaryFunctorINSt3__125pointer_to_unary_functionIRKNS2_5FrameENS_8STLValueINS4_12basic_stringIcNS4_11char_traitsIcEENS4_9allocatorIcEEEEEEEES8_SG_ED0Ev, symObjAddr: 0x17FA0, symBinAddr: 0x100018C3C, symSize: 0x4 }
  - { offset: 0xB0FCB, size: 0x8, addend: 0x0, symName: __ZN4Pika6ScriptINS_9StdConfigEE12UnaryFunctorINSt3__125pointer_to_unary_functionIRKNS2_5FrameENS_8STLValueINS4_12basic_stringIcNS4_11char_traitsIcEENS4_9allocatorIcEEEEEEEES8_SG_ED0Ev, symObjAddr: 0x17FA0, symBinAddr: 0x100018C3C, symSize: 0x4 }
  - { offset: 0xB105D, size: 0x8, addend: 0x0, symName: __ZN4Pika6ScriptINS_9StdConfigEE13BinaryFunctorINSt3__126pointer_to_binary_functionIRKNS4_12basic_stringIcNS4_11char_traitsIcEENS4_9allocatorIcEEEESD_mEESD_SD_mE8pikaCallERNS2_5FrameE, symObjAddr: 0x17FA4, symBinAddr: 0x100018C40, symSize: 0x13C }
  - { offset: 0xB1BE9, size: 0x8, addend: 0x0, symName: __ZN4Pika6ScriptINS_9StdConfigEE13BinaryFunctorINSt3__126pointer_to_binary_functionIRKNS4_12basic_stringIcNS4_11char_traitsIcEENS4_9allocatorIcEEEESD_mEESD_SD_mED1Ev, symObjAddr: 0x180E0, symBinAddr: 0x100018D7C, symSize: 0x4 }
  - { offset: 0xB1C15, size: 0x8, addend: 0x0, symName: __ZN4Pika6ScriptINS_9StdConfigEE13BinaryFunctorINSt3__126pointer_to_binary_functionIRKNS4_12basic_stringIcNS4_11char_traitsIcEENS4_9allocatorIcEEEESD_mEESD_SD_mED0Ev, symObjAddr: 0x180E4, symBinAddr: 0x100018D80, symSize: 0x4 }
  - { offset: 0xB1C43, size: 0x8, addend: 0x0, symName: __ZN4Pika6ScriptINS_9StdConfigEE13BinaryFunctorINSt3__126pointer_to_binary_functionIRKNS4_12basic_stringIcNS4_11char_traitsIcEENS4_9allocatorIcEEEESD_mEESD_SD_mED0Ev, symObjAddr: 0x180E4, symBinAddr: 0x100018D80, symSize: 0x4 }
  - { offset: 0xB1CB2, size: 0x8, addend: 0x0, symName: __ZN4Pika6ScriptINS_9StdConfigEE12UnaryFunctorINSt3__125pointer_to_unary_functionIRNS2_5FrameEvEES7_vE8pikaCallES7_, symObjAddr: 0x180E8, symBinAddr: 0x100018D84, symSize: 0x30 }
  - { offset: 0xB1DF5, size: 0x8, addend: 0x0, symName: __ZN4Pika6ScriptINS_9StdConfigEE12UnaryFunctorINSt3__125pointer_to_unary_functionIRNS2_5FrameEvEES7_vED1Ev, symObjAddr: 0x18118, symBinAddr: 0x100018DB4, symSize: 0x4 }
  - { offset: 0xB1E21, size: 0x8, addend: 0x0, symName: __ZN4Pika6ScriptINS_9StdConfigEE12UnaryFunctorINSt3__125pointer_to_unary_functionIRNS2_5FrameEvEES7_vED0Ev, symObjAddr: 0x1811C, symBinAddr: 0x100018DB8, symSize: 0x4 }
  - { offset: 0xB1E4F, size: 0x8, addend: 0x0, symName: __ZN4Pika6ScriptINS_9StdConfigEE12UnaryFunctorINSt3__125pointer_to_unary_functionIRNS2_5FrameEvEES7_vED0Ev, symObjAddr: 0x1811C, symBinAddr: 0x100018DB8, symSize: 0x4 }
  - { offset: 0xB1EC7, size: 0x8, addend: 0x0, symName: __ZN4Pika6ScriptINS_9StdConfigEE12UnaryFunctorINSt3__125pointer_to_unary_functionIRKNS4_12basic_stringIcNS4_11char_traitsIcEENS4_9allocatorIcEEEEmEESD_mE8pikaCallERNS2_5FrameE, symObjAddr: 0x18120, symBinAddr: 0x100018DBC, symSize: 0x78 }
  - { offset: 0xB225B, size: 0x8, addend: 0x0, symName: __ZN4Pika6ScriptINS_9StdConfigEE12UnaryFunctorINSt3__125pointer_to_unary_functionIRKNS4_12basic_stringIcNS4_11char_traitsIcEENS4_9allocatorIcEEEEmEESD_mE3argINS_4DumbISD_EEEEKNS_8STLValueISB_EERNS2_5FrameERKT_, symObjAddr: 0x181A0, symBinAddr: 0x100018E3C, symSize: 0x78 }
  - { offset: 0xB256B, size: 0x8, addend: 0x0, symName: __ZN4Pika6ScriptINS_9StdConfigEE12UnaryFunctorINSt3__125pointer_to_unary_functionIRKNS4_12basic_stringIcNS4_11char_traitsIcEENS4_9allocatorIcEEEEmEESD_mED1Ev, symObjAddr: 0x18198, symBinAddr: 0x100018E34, symSize: 0x4 }
  - { offset: 0xB2597, size: 0x8, addend: 0x0, symName: __ZN4Pika6ScriptINS_9StdConfigEE12UnaryFunctorINSt3__125pointer_to_unary_functionIRKNS4_12basic_stringIcNS4_11char_traitsIcEENS4_9allocatorIcEEEEmEESD_mED0Ev, symObjAddr: 0x1819C, symBinAddr: 0x100018E38, symSize: 0x4 }
  - { offset: 0xB25C5, size: 0x8, addend: 0x0, symName: __ZN4Pika6ScriptINS_9StdConfigEE12UnaryFunctorINSt3__125pointer_to_unary_functionIRKNS4_12basic_stringIcNS4_11char_traitsIcEENS4_9allocatorIcEEEEmEESD_mED0Ev, symObjAddr: 0x1819C, symBinAddr: 0x100018E38, symSize: 0x4 }
  - { offset: 0xB25D8, size: 0x8, addend: 0x0, symName: __ZN4Pika6ScriptINS_9StdConfigEE12UnaryFunctorINSt3__125pointer_to_unary_functionINS4_12basic_stringIcNS4_11char_traitsIcEENS4_9allocatorIcEEEESB_EESB_SB_E8pikaCallERNS2_5FrameE, symObjAddr: 0x18218, symBinAddr: 0x100018EB4, symSize: 0x74 }
  - { offset: 0xB28F9, size: 0x8, addend: 0x0, symName: __ZN4Pika6ScriptINS_9StdConfigEE12UnaryFunctorINSt3__125pointer_to_unary_functionINS4_12basic_stringIcNS4_11char_traitsIcEENS4_9allocatorIcEEEESB_EESB_SB_E3argINS_4DumbISB_EEEEKNS_8STLValueISB_EERNS2_5FrameERKT_, symObjAddr: 0x18374, symBinAddr: 0x100019010, symSize: 0x78 }
  - { offset: 0xB2C09, size: 0x8, addend: 0x0, symName: __ZN4Pika6ScriptINS_9StdConfigEE12UnaryFunctorINSt3__125pointer_to_unary_functionINS4_12basic_stringIcNS4_11char_traitsIcEENS4_9allocatorIcEEEESB_EESB_SB_E4callIKNS_8STLValueISB_EESB_EESG_RT_RKNS_4DumbIT0_EE, symObjAddr: 0x18294, symBinAddr: 0x100018F30, symSize: 0xE0 }
  - { offset: 0xB3287, size: 0x8, addend: 0x0, symName: __ZN4Pika6ScriptINS_9StdConfigEE12UnaryFunctorINSt3__125pointer_to_unary_functionINS4_12basic_stringIcNS4_11char_traitsIcEENS4_9allocatorIcEEEESB_EESB_SB_ED1Ev, symObjAddr: 0x1828C, symBinAddr: 0x100018F28, symSize: 0x4 }
  - { offset: 0xB32B3, size: 0x8, addend: 0x0, symName: __ZN4Pika6ScriptINS_9StdConfigEE12UnaryFunctorINSt3__125pointer_to_unary_functionINS4_12basic_stringIcNS4_11char_traitsIcEENS4_9allocatorIcEEEESB_EESB_SB_ED0Ev, symObjAddr: 0x18290, symBinAddr: 0x100018F2C, symSize: 0x4 }
  - { offset: 0xB32E1, size: 0x8, addend: 0x0, symName: __ZN4Pika6ScriptINS_9StdConfigEE12UnaryFunctorINSt3__125pointer_to_unary_functionINS4_12basic_stringIcNS4_11char_traitsIcEENS4_9allocatorIcEEEESB_EESB_SB_ED0Ev, symObjAddr: 0x18290, symBinAddr: 0x100018F2C, symSize: 0x4 }
  - { offset: 0xB32F4, size: 0x8, addend: 0x0, symName: __ZNKSt3__125pointer_to_unary_functionINS_12basic_stringIcNS_11char_traitsIcEENS_9allocatorIcEEEES6_EclB8ne180100ES6_, symObjAddr: 0x183EC, symBinAddr: 0x100019088, symSize: 0x8C }
  - { offset: 0xB36BA, size: 0x8, addend: 0x0, symName: __ZN4Pika6ScriptINS_9StdConfigEE12UnaryFunctorINSt3__125pointer_to_unary_functionIRKNS4_12basic_stringIcNS4_11char_traitsIcEENS4_9allocatorIcEEEEjEESD_jE8pikaCallERNS2_5FrameE, symObjAddr: 0x18478, symBinAddr: 0x100019114, symSize: 0x78 }
  - { offset: 0xB3A4E, size: 0x8, addend: 0x0, symName: __ZN4Pika6ScriptINS_9StdConfigEE12UnaryFunctorINSt3__125pointer_to_unary_functionIRKNS4_12basic_stringIcNS4_11char_traitsIcEENS4_9allocatorIcEEEEjEESD_jE3argINS_4DumbISD_EEEEKNS_8STLValueISB_EERNS2_5FrameERKT_, symObjAddr: 0x184F8, symBinAddr: 0x100019194, symSize: 0x78 }
  - { offset: 0xB3D5E, size: 0x8, addend: 0x0, symName: __ZN4Pika8STLValueINSt3__112basic_stringIcNS1_11char_traitsIcEENS1_9allocatorIcEEEEEC2Ej, symObjAddr: 0x18570, symBinAddr: 0x10001920C, symSize: 0x90 }
  - { offset: 0xB4083, size: 0x8, addend: 0x0, symName: __ZN4Pika6ScriptINS_9StdConfigEE12UnaryFunctorINSt3__125pointer_to_unary_functionIRKNS4_12basic_stringIcNS4_11char_traitsIcEENS4_9allocatorIcEEEEjEESD_jED1Ev, symObjAddr: 0x184F0, symBinAddr: 0x10001918C, symSize: 0x4 }
  - { offset: 0xB40AF, size: 0x8, addend: 0x0, symName: __ZN4Pika6ScriptINS_9StdConfigEE12UnaryFunctorINSt3__125pointer_to_unary_functionIRKNS4_12basic_stringIcNS4_11char_traitsIcEENS4_9allocatorIcEEEEjEESD_jED0Ev, symObjAddr: 0x184F4, symBinAddr: 0x100019190, symSize: 0x4 }
  - { offset: 0xB40DD, size: 0x8, addend: 0x0, symName: __ZN4Pika6ScriptINS_9StdConfigEE12UnaryFunctorINSt3__125pointer_to_unary_functionIRKNS4_12basic_stringIcNS4_11char_traitsIcEENS4_9allocatorIcEEEEjEESD_jED0Ev, symObjAddr: 0x184F4, symBinAddr: 0x100019190, symSize: 0x4 }
  - { offset: 0xB4155, size: 0x8, addend: 0x0, symName: __ZN4Pika6ScriptINS_9StdConfigEE12UnaryFunctorINSt3__125pointer_to_unary_functionIRNS2_5FrameEmEES7_mE8pikaCallES7_, symObjAddr: 0x18600, symBinAddr: 0x10001929C, symSize: 0x30 }
  - { offset: 0xB4223, size: 0x8, addend: 0x0, symName: __ZN4Pika6ScriptINS_9StdConfigEE12UnaryFunctorINSt3__125pointer_to_unary_functionIRNS2_5FrameEmEES7_mED1Ev, symObjAddr: 0x18630, symBinAddr: 0x1000192CC, symSize: 0x4 }
  - { offset: 0xB424F, size: 0x8, addend: 0x0, symName: __ZN4Pika6ScriptINS_9StdConfigEE12UnaryFunctorINSt3__125pointer_to_unary_functionIRNS2_5FrameEmEES7_mED0Ev, symObjAddr: 0x18634, symBinAddr: 0x1000192D0, symSize: 0x4 }
  - { offset: 0xB427D, size: 0x8, addend: 0x0, symName: __ZN4Pika6ScriptINS_9StdConfigEE12UnaryFunctorINSt3__125pointer_to_unary_functionIRNS2_5FrameEmEES7_mED0Ev, symObjAddr: 0x18634, symBinAddr: 0x1000192D0, symSize: 0x4 }
  - { offset: 0xB4290, size: 0x8, addend: 0x0, symName: __ZN4Pika6ScriptINS_9StdConfigEE12UnaryFunctorINSt3__125pointer_to_unary_functionIRKNS2_5FrameENS4_12basic_stringIcNS4_11char_traitsIcEENS4_9allocatorIcEEEEEES8_SE_E8pikaCallERS6_, symObjAddr: 0x18638, symBinAddr: 0x1000192D4, symSize: 0x20 }
  - { offset: 0xB42F0, size: 0x8, addend: 0x0, symName: __ZN4Pika6ScriptINS_9StdConfigEE12UnaryFunctorINSt3__125pointer_to_unary_functionIRKNS2_5FrameENS4_12basic_stringIcNS4_11char_traitsIcEENS4_9allocatorIcEEEEEES8_SE_E4callIS7_SE_EENS_8STLValueISE_EERT_RKNS_4DumbIT0_EE, symObjAddr: 0x18660, symBinAddr: 0x1000192FC, symSize: 0x88 }
  - { offset: 0xB468B, size: 0x8, addend: 0x0, symName: __ZN4Pika6ScriptINS_9StdConfigEE12UnaryFunctorINSt3__125pointer_to_unary_functionIRKNS2_5FrameENS4_12basic_stringIcNS4_11char_traitsIcEENS4_9allocatorIcEEEEEES8_SE_ED1Ev, symObjAddr: 0x18658, symBinAddr: 0x1000192F4, symSize: 0x4 }
  - { offset: 0xB46B7, size: 0x8, addend: 0x0, symName: __ZN4Pika6ScriptINS_9StdConfigEE12UnaryFunctorINSt3__125pointer_to_unary_functionIRKNS2_5FrameENS4_12basic_stringIcNS4_11char_traitsIcEENS4_9allocatorIcEEEEEES8_SE_ED0Ev, symObjAddr: 0x1865C, symBinAddr: 0x1000192F8, symSize: 0x4 }
  - { offset: 0xB46E5, size: 0x8, addend: 0x0, symName: __ZN4Pika6ScriptINS_9StdConfigEE12UnaryFunctorINSt3__125pointer_to_unary_functionIRKNS2_5FrameENS4_12basic_stringIcNS4_11char_traitsIcEENS4_9allocatorIcEEEEEES8_SE_ED0Ev, symObjAddr: 0x1865C, symBinAddr: 0x1000192F8, symSize: 0x4 }
  - { offset: 0xB477C, size: 0x8, addend: 0x0, symName: __ZN4Pika6ScriptINS_9StdConfigEE12UnaryFunctorINSt3__125pointer_to_unary_functionIRKNS4_12basic_stringIcNS4_11char_traitsIcEENS4_9allocatorIcEEEEvEESD_vE8pikaCallERNS2_5FrameE, symObjAddr: 0x186E8, symBinAddr: 0x100019384, symSize: 0x74 }
  - { offset: 0xB4B82, size: 0x8, addend: 0x0, symName: __ZN4Pika6ScriptINS_9StdConfigEE12UnaryFunctorINSt3__125pointer_to_unary_functionIRKNS4_12basic_stringIcNS4_11char_traitsIcEENS4_9allocatorIcEEEEvEESD_vE3argINS_4DumbISD_EEEEKNS_8STLValueISB_EERNS2_5FrameERKT_, symObjAddr: 0x18764, symBinAddr: 0x100019400, symSize: 0x78 }
  - { offset: 0xB4E92, size: 0x8, addend: 0x0, symName: __ZN4Pika6ScriptINS_9StdConfigEE12UnaryFunctorINSt3__125pointer_to_unary_functionIRKNS4_12basic_stringIcNS4_11char_traitsIcEENS4_9allocatorIcEEEEvEESD_vED1Ev, symObjAddr: 0x1875C, symBinAddr: 0x1000193F8, symSize: 0x4 }
  - { offset: 0xB4EBE, size: 0x8, addend: 0x0, symName: __ZN4Pika6ScriptINS_9StdConfigEE12UnaryFunctorINSt3__125pointer_to_unary_functionIRKNS4_12basic_stringIcNS4_11char_traitsIcEENS4_9allocatorIcEEEEvEESD_vED0Ev, symObjAddr: 0x18760, symBinAddr: 0x1000193FC, symSize: 0x4 }
  - { offset: 0xB4EEC, size: 0x8, addend: 0x0, symName: __ZN4Pika6ScriptINS_9StdConfigEE12UnaryFunctorINSt3__125pointer_to_unary_functionIRKNS4_12basic_stringIcNS4_11char_traitsIcEENS4_9allocatorIcEEEEvEESD_vED0Ev, symObjAddr: 0x18760, symBinAddr: 0x1000193FC, symSize: 0x4 }
  - { offset: 0xB4F6A, size: 0x8, addend: 0x0, symName: __ZN4Pika6ScriptINS_9StdConfigEE13BinaryFunctorINSt3__126pointer_to_binary_functionIRKNS4_12basic_stringIcNS4_11char_traitsIcEENS4_9allocatorIcEEEESD_vEESD_SD_vE8pikaCallERNS2_5FrameE, symObjAddr: 0x187DC, symBinAddr: 0x100019478, symSize: 0x138 }
  - { offset: 0xB5B86, size: 0x8, addend: 0x0, symName: __ZN4Pika6ScriptINS_9StdConfigEE13BinaryFunctorINSt3__126pointer_to_binary_functionIRKNS4_12basic_stringIcNS4_11char_traitsIcEENS4_9allocatorIcEEEESD_vEESD_SD_vED1Ev, symObjAddr: 0x18914, symBinAddr: 0x1000195B0, symSize: 0x4 }
  - { offset: 0xB5BB2, size: 0x8, addend: 0x0, symName: __ZN4Pika6ScriptINS_9StdConfigEE13BinaryFunctorINSt3__126pointer_to_binary_functionIRKNS4_12basic_stringIcNS4_11char_traitsIcEENS4_9allocatorIcEEEESD_vEESD_SD_vED0Ev, symObjAddr: 0x18918, symBinAddr: 0x1000195B4, symSize: 0x4 }
  - { offset: 0xB5BE0, size: 0x8, addend: 0x0, symName: __ZN4Pika6ScriptINS_9StdConfigEE13BinaryFunctorINSt3__126pointer_to_binary_functionIRKNS4_12basic_stringIcNS4_11char_traitsIcEENS4_9allocatorIcEEEESD_vEESD_SD_vED0Ev, symObjAddr: 0x18918, symBinAddr: 0x1000195B4, symSize: 0x4 }
  - { offset: 0xB5C63, size: 0x8, addend: 0x0, symName: __ZN4Pika6ScriptINS_9StdConfigEE12UnaryFunctorINSt3__125pointer_to_unary_functionIRKNS4_12basic_stringIcNS4_11char_traitsIcEENS4_9allocatorIcEEEEiEESD_iE8pikaCallERNS2_5FrameE, symObjAddr: 0x1891C, symBinAddr: 0x1000195B8, symSize: 0x78 }
  - { offset: 0xB5FF7, size: 0x8, addend: 0x0, symName: __ZN4Pika6ScriptINS_9StdConfigEE12UnaryFunctorINSt3__125pointer_to_unary_functionIRKNS4_12basic_stringIcNS4_11char_traitsIcEENS4_9allocatorIcEEEEiEESD_iE3argINS_4DumbISD_EEEEKNS_8STLValueISB_EERNS2_5FrameERKT_, symObjAddr: 0x1899C, symBinAddr: 0x100019638, symSize: 0x78 }
  - { offset: 0xB6307, size: 0x8, addend: 0x0, symName: __ZN4Pika6ScriptINS_9StdConfigEE12UnaryFunctorINSt3__125pointer_to_unary_functionIRKNS4_12basic_stringIcNS4_11char_traitsIcEENS4_9allocatorIcEEEEiEESD_iED1Ev, symObjAddr: 0x18994, symBinAddr: 0x100019630, symSize: 0x4 }
  - { offset: 0xB6333, size: 0x8, addend: 0x0, symName: __ZN4Pika6ScriptINS_9StdConfigEE12UnaryFunctorINSt3__125pointer_to_unary_functionIRKNS4_12basic_stringIcNS4_11char_traitsIcEENS4_9allocatorIcEEEEiEESD_iED0Ev, symObjAddr: 0x18998, symBinAddr: 0x100019634, symSize: 0x4 }
  - { offset: 0xB6361, size: 0x8, addend: 0x0, symName: __ZN4Pika6ScriptINS_9StdConfigEE12UnaryFunctorINSt3__125pointer_to_unary_functionIRKNS4_12basic_stringIcNS4_11char_traitsIcEENS4_9allocatorIcEEEEiEESD_iED0Ev, symObjAddr: 0x18998, symBinAddr: 0x100019634, symSize: 0x4 }
  - { offset: 0xB63D0, size: 0x8, addend: 0x0, symName: __ZN4Pika6ScriptINS_9StdConfigEE12UnaryFunctorINSt3__125pointer_to_unary_functionIRKNS2_5FrameEvEES8_vE8pikaCallERS6_, symObjAddr: 0x18A14, symBinAddr: 0x1000196B0, symSize: 0x30 }
  - { offset: 0xB6513, size: 0x8, addend: 0x0, symName: __ZN4Pika6ScriptINS_9StdConfigEE12UnaryFunctorINSt3__125pointer_to_unary_functionIRKNS2_5FrameEvEES8_vED1Ev, symObjAddr: 0x18A44, symBinAddr: 0x1000196E0, symSize: 0x4 }
  - { offset: 0xB653F, size: 0x8, addend: 0x0, symName: __ZN4Pika6ScriptINS_9StdConfigEE12UnaryFunctorINSt3__125pointer_to_unary_functionIRKNS2_5FrameEvEES8_vED0Ev, symObjAddr: 0x18A48, symBinAddr: 0x1000196E4, symSize: 0x4 }
  - { offset: 0xB656D, size: 0x8, addend: 0x0, symName: __ZN4Pika6ScriptINS_9StdConfigEE12UnaryFunctorINSt3__125pointer_to_unary_functionIRKNS2_5FrameEvEES8_vED0Ev, symObjAddr: 0x18A48, symBinAddr: 0x1000196E4, symSize: 0x4 }
  - { offset: 0xB6580, size: 0x8, addend: 0x0, symName: __ZN8QStrings7QStringIcLm52EE6appendEPKcm.cold.1, symObjAddr: 0x2B064, symBinAddr: 0x10002B4C0, symSize: 0x28 }
  - { offset: 0xB6598, size: 0x8, addend: 0x0, symName: __ZN8QStrings7QStringIcLm52EE6appendEPKcm.cold.2, symObjAddr: 0x2B08C, symBinAddr: 0x10002B4E8, symSize: 0x28 }
  - { offset: 0xB65B0, size: 0x8, addend: 0x0, symName: __ZN8QStrings7QStringIcLm52EEC2ERKS1_mm.cold.1, symObjAddr: 0x2B0B4, symBinAddr: 0x10002B510, symSize: 0x28 }
  - { offset: 0xB65C8, size: 0x8, addend: 0x0, symName: __ZNK8QStrings7QStringIcLm52EE6concatEPKcm.cold.1, symObjAddr: 0x2B0DC, symBinAddr: 0x10002B538, symSize: 0x28 }
  - { offset: 0xB65E0, size: 0x8, addend: 0x0, symName: __ZN8QStrings7QStringIcLm52EEC2EPKcmm.cold.1, symObjAddr: 0x2B104, symBinAddr: 0x10002B560, symSize: 0x28 }
  - { offset: 0xB65F8, size: 0x8, addend: 0x0, symName: __ZN8QStrings7QStringIcLm52EE9newBufferEmPKcm.cold.1, symObjAddr: 0x2B12C, symBinAddr: 0x10002B588, symSize: 0x28 }
  - { offset: 0xB6644, size: 0x8, addend: 0x0, symName: __ZN8QStrings7QStringIcLm52EEC2ENS1_9_iteratorIKcKS1_EES5_.cold.1, symObjAddr: 0x2B154, symBinAddr: 0x10002B5B0, symSize: 0x28 }
  - { offset: 0xB665C, size: 0x8, addend: 0x0, symName: __ZN8QStrings7QStringIcLm52EEC2ENS1_9_iteratorIKcKS1_EES5_.cold.2, symObjAddr: 0x2B17C, symBinAddr: 0x10002B5D8, symSize: 0x28 }
  - { offset: 0xB6674, size: 0x8, addend: 0x0, symName: __ZN8QStrings7QStringIcLm52EEC2ENS1_9_iteratorIKcKS1_EES5_.cold.3, symObjAddr: 0x2B1A4, symBinAddr: 0x10002B600, symSize: 0x24 }
  - { offset: 0xB66BC, size: 0x8, addend: 0x0, symName: __ZN4Pika9ExceptionIN8QStrings7QStringIcLm52EEEED0Ev, symObjAddr: 0x18E68, symBinAddr: 0x100019B04, symSize: 0x14 }
  - { offset: 0xB6723, size: 0x8, addend: 0x0, symName: __ZNK4Pika9ExceptionIN8QStrings7QStringIcLm52EEEE4whatEv, symObjAddr: 0x18E7C, symBinAddr: 0x100019B18, symSize: 0x98 }
  - { offset: 0xB6A98, size: 0x8, addend: 0x0, symName: __ZNK4Pika9ExceptionIN8QStrings7QStringIcLm52EEEE8getErrorEv, symObjAddr: 0x18F14, symBinAddr: 0x100019BB0, symSize: 0x20 }
  - { offset: 0xB6ABF, size: 0x8, addend: 0x0, symName: __ZNK4Pika9ExceptionIN8QStrings7QStringIcLm52EEEE8getErrorEv, symObjAddr: 0x18F14, symBinAddr: 0x100019BB0, symSize: 0x20 }
  - { offset: 0xB6AE5, size: 0x8, addend: 0x0, symName: __ZNK4Pika9ExceptionIN8QStrings7QStringIcLm52EEEE8getErrorEv, symObjAddr: 0x18F14, symBinAddr: 0x100019BB0, symSize: 0x20 }
  - { offset: 0xB6B6C, size: 0x8, addend: 0x0, symName: __ZNSt3__112basic_stringIcNS_11char_traitsIcEENS_9allocatorIcEEE16__init_with_sizeB8ne180100IN8QStrings7QStringIcLm52EE9_iteratorIKcKS9_EESD_EEvT_T0_m, symObjAddr: 0x18FAC, symBinAddr: 0x100019C48, symSize: 0x118 }
  - { offset: 0xB6ED2, size: 0x8, addend: 0x0, symName: __ZNSt3__112basic_stringIcNS_11char_traitsIcEENS_9allocatorIcEEEC2B8ne180100IN8QStrings7QStringIcLm52EE9_iteratorIKcKS9_EELi0EEET_SE_.cold.1, symObjAddr: 0x2B1C8, symBinAddr: 0x10002B624, symSize: 0x24 }
  - { offset: 0xB6F40, size: 0x8, addend: 0x0, symName: __ZNK8QStrings7QStringIcLm52EE9_iteratorIKcKS1_EltIS3_S4_EEbRKNS2_IT_T0_EE, symObjAddr: 0x190C4, symBinAddr: 0x100019D60, symSize: 0x34 }
  - { offset: 0xB6F6D, size: 0x8, addend: 0x0, symName: __ZN4Pika11intToStringIN8QStrings7QStringIcLm52EEEhEET_T0_ii, symObjAddr: 0x190F8, symBinAddr: 0x100019D94, symSize: 0xE8 }
  - { offset: 0xB6F78, size: 0x8, addend: 0x0, symName: __ZNK8QStrings7QStringIcLm52EE9_iteratorIKcKS1_EltIS3_S4_EEbRKNS2_IT_T0_EE.cold.1, symObjAddr: 0x2B1EC, symBinAddr: 0x10002B648, symSize: 0x24 }
  - { offset: 0xB6FAE, size: 0x8, addend: 0x0, symName: __ZN4Pika6ScriptI19QuickerScriptConfigE4RootC2ERNS2_9VariablesE, symObjAddr: 0x192E8, symBinAddr: 0x100019F84, symSize: 0xCC }
  - { offset: 0xB71CB, size: 0x8, addend: 0x0, symName: __ZN4Pika6ScriptI19QuickerScriptConfigE17addLibraryNativesERNS2_5FrameEb, symObjAddr: 0x193B4, symBinAddr: 0x10001A050, symSize: 0x1218 }
  - { offset: 0xBCB11, size: 0x8, addend: 0x0, symName: __ZN4Pika6ScriptI19QuickerScriptConfigE5Frame3setERKN8QStrings7QStringIcLm52EEERKNS_8STLValueIS6_EE, symObjAddr: 0x1A814, symBinAddr: 0x10001B4B0, symSize: 0x160 }
  - { offset: 0xBCF4F, size: 0x8, addend: 0x0, symName: __ZN4Pika6ScriptI19QuickerScriptConfigE8FullRootD0Ev, symObjAddr: 0x1A5CC, symBinAddr: 0x10001B268, symSize: 0xC8 }
  - { offset: 0xBD331, size: 0x8, addend: 0x0, symName: __ZThn152_N4Pika6ScriptI19QuickerScriptConfigE8FullRootD0Ev, symObjAddr: 0x1A694, symBinAddr: 0x10001B330, symSize: 0x8 }
  - { offset: 0xBD356, size: 0x8, addend: 0x0, symName: __ZN4Pika6ScriptI19QuickerScriptConfigE4Root13generateLabelEv, symObjAddr: 0x1A708, symBinAddr: 0x10001B3A4, symSize: 0x98 }
  - { offset: 0xBD51F, size: 0x8, addend: 0x0, symName: __ZN4Pika6ScriptI19QuickerScriptConfigE3lib9characterEd, symObjAddr: 0x1A974, symBinAddr: 0x10001B610, symSize: 0x158 }
  - { offset: 0xBD8B9, size: 0x8, addend: 0x0, symName: __ZN4Pika6ScriptI19QuickerScriptConfigE3lib7deleterERKNS2_5FrameE, symObjAddr: 0x1AACC, symBinAddr: 0x10001B768, symSize: 0xE4 }
  - { offset: 0xBDC75, size: 0x8, addend: 0x0, symName: __ZNK4Pika6ScriptI19QuickerScriptConfigE5Frame11getPreviousEv, symObjAddr: 0x1EF28, symBinAddr: 0x10001FBC4, symSize: 0x40 }
  - { offset: 0xBDCB1, size: 0x8, addend: 0x0, symName: __ZN4Pika6ScriptI19QuickerScriptConfigE3lib6existsERKNS2_5FrameE, symObjAddr: 0x1ABB0, symBinAddr: 0x10001B84C, symSize: 0x120 }
  - { offset: 0xBE20F, size: 0x8, addend: 0x0, symName: __ZN4Pika6ScriptI19QuickerScriptConfigE3lib7elevateERNS2_5FrameE, symObjAddr: 0x1ACD0, symBinAddr: 0x10001B96C, symSize: 0xA0 }
  - { offset: 0xBE568, size: 0x8, addend: 0x0, symName: __ZN4Pika6ScriptI19QuickerScriptConfigE16getThisAndMethodERNS2_5FrameE, symObjAddr: 0x1F2E8, symBinAddr: 0x10001FF84, symSize: 0x274 }
  - { offset: 0xBEF27, size: 0x8, addend: 0x0, symName: __ZN4Pika6ScriptI19QuickerScriptConfigE3lib8evaluateERKNS2_5FrameE, symObjAddr: 0x1AD70, symBinAddr: 0x10001BA0C, symSize: 0x1AC }
  - { offset: 0xBF77C, size: 0x8, addend: 0x0, symName: __ZN4Pika6ScriptI19QuickerScriptConfigE5Frame8evaluateEN8QStrings7QStringIcLm52EEE, symObjAddr: 0x1F55C, symBinAddr: 0x1000201F8, symSize: 0x628 }
  - { offset: 0xC1223, size: 0x8, addend: 0x0, symName: __ZN4Pika6ScriptI19QuickerScriptConfigE3lib4findERKN8QStrings7QStringIcLm52EEES8_, symObjAddr: 0x1AF1C, symBinAddr: 0x10001BBB8, symSize: 0x68 }
  - { offset: 0xC1337, size: 0x8, addend: 0x0, symName: __ZN4Pika6ScriptI19QuickerScriptConfigE3lib7foreachERNS2_5FrameE, symObjAddr: 0x1AF84, symBinAddr: 0x10001BC20, symSize: 0x344 }
  - { offset: 0xC145C, size: 0x8, addend: 0x0, symName: __ZN4Pika6ScriptI19QuickerScriptConfigE3lib7foreachERNS2_5FrameE, symObjAddr: 0x1AF84, symBinAddr: 0x10001BC20, symSize: 0x344 }
  - { offset: 0xC2480, size: 0x8, addend: 0x0, symName: __ZNK4Pika8STLValueIN8QStrings7QStringIcLm52EEEEixERKS4_, symObjAddr: 0x26700, symBinAddr: 0x100026E60, symSize: 0x25C }
  - { offset: 0xC2B4B, size: 0x8, addend: 0x0, symName: __ZNK4Pika6ScriptI19QuickerScriptConfigE5Frame9referenceERKN8QStrings7QStringIcLm52EEE, symObjAddr: 0x234F8, symBinAddr: 0x100024194, symSize: 0x88 }
  - { offset: 0xC2DBA, size: 0x8, addend: 0x0, symName: __ZNSt3__16vectorINS_4pairIN8QStrings7QStringIcLm52EEEN4Pika8STLValueIS4_EEEENS_9allocatorIS8_EEE16__destroy_vectorclB8ne180100Ev, symObjAddr: 0x28DB0, symBinAddr: 0x100029510, symSize: 0x40 }
  - { offset: 0xC2F82, size: 0x8, addend: 0x0, symName: __ZN4Pika6ScriptI19QuickerScriptConfigE3lib5inputERKN8QStrings7QStringIcLm52EEE, symObjAddr: 0x1B2C8, symBinAddr: 0x10001BF64, symSize: 0x25C }
  - { offset: 0xC3A23, size: 0x8, addend: 0x0, symName: __ZN4Pika6ScriptI19QuickerScriptConfigE3lib6invokeERNS2_5FrameE, symObjAddr: 0x1B524, symBinAddr: 0x10001C1C0, symSize: 0x584 }
  - { offset: 0xC542D, size: 0x8, addend: 0x0, symName: __ZNSt3__16vectorIN4Pika8STLValueIN8QStrings7QStringIcLm52EEEEENS_9allocatorIS6_EEEC2Em, symObjAddr: 0x28EA8, symBinAddr: 0x100029608, symSize: 0x68 }
  - { offset: 0xC5565, size: 0x8, addend: 0x0, symName: __ZNK4Pika8STLValueIN8QStrings7QStringIcLm52EEEEixIlEEKS4_RKT_, symObjAddr: 0x28E48, symBinAddr: 0x1000295A8, symSize: 0x60 }
  - { offset: 0xC56D9, size: 0x8, addend: 0x0, symName: __ZNK4Pika8STLValueIN8QStrings7QStringIcLm52EEEEixIS3_EEKS4_RKT_, symObjAddr: 0x266A0, symBinAddr: 0x100026E00, symSize: 0x60 }
  - { offset: 0xC58A4, size: 0x8, addend: 0x0, symName: __ZN4Pika6ScriptI19QuickerScriptConfigE3lib6lengthERKN8QStrings7QStringIcLm52EEE, symObjAddr: 0x1BAA8, symBinAddr: 0x10001C744, symSize: 0x8 }
  - { offset: 0xC58CD, size: 0x8, addend: 0x0, symName: __ZN4Pika6ScriptI19QuickerScriptConfigE3lib6lengthERKN8QStrings7QStringIcLm52EEE, symObjAddr: 0x1BAA8, symBinAddr: 0x10001C744, symSize: 0x8 }
  - { offset: 0xC58E8, size: 0x8, addend: 0x0, symName: __ZN4Pika6ScriptI19QuickerScriptConfigE3lib4loadERKN8QStrings7QStringIcLm52EEE, symObjAddr: 0x1BAB0, symBinAddr: 0x10001C74C, symSize: 0x410 }
  - { offset: 0xC64E4, size: 0x8, addend: 0x0, symName: __ZN4Pika6ScriptI19QuickerScriptConfigE3lib5lowerEN8QStrings7QStringIcLm52EEE, symObjAddr: 0x1BEC0, symBinAddr: 0x10001CB5C, symSize: 0x100 }
  - { offset: 0xC6780, size: 0x8, addend: 0x0, symName: __ZN4Pika6ScriptI19QuickerScriptConfigE3lib8mismatchERKN8QStrings7QStringIcLm52EEES8_, symObjAddr: 0x1BFC0, symBinAddr: 0x10001CC5C, symSize: 0xE4 }
  - { offset: 0xC6816, size: 0x8, addend: 0x0, symName: __ZN4Pika6ScriptI19QuickerScriptConfigE3lib8mismatchERKN8QStrings7QStringIcLm52EEES8_, symObjAddr: 0x1BFC0, symBinAddr: 0x10001CC5C, symSize: 0xE4 }
  - { offset: 0xC6AA8, size: 0x8, addend: 0x0, symName: __ZN4Pika6ScriptI19QuickerScriptConfigE3lib7ordinalERKN8QStrings7QStringIcLm52EEE, symObjAddr: 0x1C0A4, symBinAddr: 0x10001CD40, symSize: 0x124 }
  - { offset: 0xC6BB5, size: 0x8, addend: 0x0, symName: __ZN4Pika6ScriptI19QuickerScriptConfigE3lib7ordinalERKN8QStrings7QStringIcLm52EEE, symObjAddr: 0x1C0A4, symBinAddr: 0x10001CD40, symSize: 0x124 }
  - { offset: 0xC6EB3, size: 0x8, addend: 0x0, symName: __ZN4Pika6ScriptI19QuickerScriptConfigE3lib5parseERNS2_5FrameE, symObjAddr: 0x1C1C8, symBinAddr: 0x10001CE64, symSize: 0x18C }
  - { offset: 0xC7486, size: 0x8, addend: 0x0, symName: __ZNK4Pika8STLValueIN8QStrings7QStringIcLm52EEEEcvbEv, symObjAddr: 0x23084, symBinAddr: 0x100023D20, symSize: 0x28C }
  - { offset: 0xC7C1C, size: 0x8, addend: 0x0, symName: __ZN4Pika6ScriptI19QuickerScriptConfigE5Frame5parseERKN8QStrings7QStringIcLm52EE9_iteratorIKcKS6_EESC_b, symObjAddr: 0x294E8, symBinAddr: 0x100029BA0, symSize: 0x2EC }
  - { offset: 0xC80E9, size: 0x8, addend: 0x0, symName: __ZN4Pika6ScriptI19QuickerScriptConfigE3lib9precisionERKNS2_5FrameE, symObjAddr: 0x1C354, symBinAddr: 0x10001CFF0, symSize: 0x13C }
  - { offset: 0xC85E9, size: 0x8, addend: 0x0, symName: __ZNK4Pika8STLValueIN8QStrings7QStringIcLm52EEEEcvdEv, symObjAddr: 0x1DD14, symBinAddr: 0x10001E9B0, symSize: 0x148 }
  - { offset: 0xC8991, size: 0x8, addend: 0x0, symName: __ZN4Pika6ScriptI19QuickerScriptConfigE3lib5printERKN8QStrings7QStringIcLm52EEE, symObjAddr: 0x1C490, symBinAddr: 0x10001D12C, symSize: 0xEC }
  - { offset: 0xC8E75, size: 0x8, addend: 0x0, symName: __ZN4Pika6ScriptI19QuickerScriptConfigE3lib5radixERKNS2_5FrameE, symObjAddr: 0x1C57C, symBinAddr: 0x10001D218, symSize: 0x3C8 }
  - { offset: 0xC9C2F, size: 0x8, addend: 0x0, symName: __ZN4Pika6ScriptI19QuickerScriptConfigE3lib6randomEd, symObjAddr: 0x1C944, symBinAddr: 0x10001D5E0, symSize: 0x34 }
  - { offset: 0xC9C63, size: 0x8, addend: 0x0, symName: __ZN4Pika6ScriptI19QuickerScriptConfigE3lib7reverseEN8QStrings7QStringIcLm52EEE, symObjAddr: 0x1C978, symBinAddr: 0x10001D614, symSize: 0x6C }
  - { offset: 0xC9DE9, size: 0x8, addend: 0x0, symName: __ZN4Pika6ScriptI19QuickerScriptConfigE3lib4saveERKN8QStrings7QStringIcLm52EEES8_, symObjAddr: 0x1C9E4, symBinAddr: 0x10001D680, symSize: 0x324 }
  - { offset: 0xCA6DD, size: 0x8, addend: 0x0, symName: __ZN4Pika6ScriptI19QuickerScriptConfigE3lib6searchERKN8QStrings7QStringIcLm52EEES8_, symObjAddr: 0x1CD08, symBinAddr: 0x10001D9A4, symSize: 0x80 }
  - { offset: 0xCA81D, size: 0x8, addend: 0x0, symName: __ZN4Pika6ScriptI19QuickerScriptConfigE3lib4spanERKN8QStrings7QStringIcLm52EEES8_, symObjAddr: 0x1CD88, symBinAddr: 0x10001DA24, symSize: 0xA4 }
  - { offset: 0xCA83C, size: 0x8, addend: 0x0, symName: __ZN4Pika6ScriptI19QuickerScriptConfigE3lib4spanERKN8QStrings7QStringIcLm52EEES8_, symObjAddr: 0x1CD88, symBinAddr: 0x10001DA24, symSize: 0xA4 }
  - { offset: 0xCA98F, size: 0x8, addend: 0x0, symName: __ZN4Pika6ScriptI19QuickerScriptConfigE3lib6systemERKN8QStrings7QStringIcLm52EEE, symObjAddr: 0x1CE2C, symBinAddr: 0x10001DAC8, symSize: 0x180 }
  - { offset: 0xCAA18, size: 0x8, addend: 0x0, symName: __ZN4Pika6ScriptI19QuickerScriptConfigE3lib6systemERKN8QStrings7QStringIcLm52EEE, symObjAddr: 0x1CE2C, symBinAddr: 0x10001DAC8, symSize: 0x180 }
  - { offset: 0xCB0AE, size: 0x8, addend: 0x0, symName: __ZN4Pika6ScriptI19QuickerScriptConfigE3lib4timeERKNS2_5FrameE, symObjAddr: 0x1CFAC, symBinAddr: 0x10001DC48, symSize: 0x2C }
  - { offset: 0xCB119, size: 0x8, addend: 0x0, symName: __ZN4Pika8STLValueIN8QStrings7QStringIcLm52EEEEC2Ed, symObjAddr: 0x1E448, symBinAddr: 0x10001F0E4, symSize: 0x58 }
  - { offset: 0xCB208, size: 0x8, addend: 0x0, symName: __ZN4Pika6ScriptI19QuickerScriptConfigE3lib7throwerERKN8QStrings7QStringIcLm52EEE, symObjAddr: 0x1CFD8, symBinAddr: 0x10001DC74, symSize: 0x50 }
  - { offset: 0xCB259, size: 0x8, addend: 0x0, symName: __ZN4Pika6ScriptI19QuickerScriptConfigE3lib5traceERKNS2_5FrameE, symObjAddr: 0x1D028, symBinAddr: 0x10001DCC4, symSize: 0x178 }
  - { offset: 0xCB94A, size: 0x8, addend: 0x0, symName: __ZN4Pika6ScriptI19QuickerScriptConfigE3lib5tryerERNS2_5FrameE, symObjAddr: 0x1D1A0, symBinAddr: 0x10001DE3C, symSize: 0x178 }
  - { offset: 0xCBEA4, size: 0x8, addend: 0x0, symName: __ZN4Pika6ScriptI19QuickerScriptConfigE3lib5upperEN8QStrings7QStringIcLm52EEE, symObjAddr: 0x1D318, symBinAddr: 0x10001DFB4, symSize: 0x100 }
  - { offset: 0xCC140, size: 0x8, addend: 0x0, symName: __ZNK4Pika6ScriptI19QuickerScriptConfigE5Frame12resolveFrameERKN8QStrings7QStringIcLm52EEE, symObjAddr: 0x1D418, symBinAddr: 0x10001E0B4, symSize: 0xC4 }
  - { offset: 0xCC1E9, size: 0x8, addend: 0x0, symName: __ZNK4Pika6ScriptI19QuickerScriptConfigE5Frame12resolveFrameERN8QStrings7QStringIcLm52EE9_iteratorIKcKS6_EERKSA_, symObjAddr: 0x1D4DC, symBinAddr: 0x10001E178, symSize: 0x450 }
  - { offset: 0xCCDBF, size: 0x8, addend: 0x0, symName: __ZNK8QStrings7QStringIcLm52EEplERKS1_, symObjAddr: 0x1DBF4, symBinAddr: 0x10001E890, symSize: 0x34 }
  - { offset: 0xCCEA1, size: 0x8, addend: 0x0, symName: __ZN4Pika6ScriptI19QuickerScriptConfigE12UnaryFunctorINSt3__125pointer_to_unary_functionIddEEddE8pikaCallERNS2_5FrameE, symObjAddr: 0x1DC28, symBinAddr: 0x10001E8C4, symSize: 0x68 }
  - { offset: 0xCD084, size: 0x8, addend: 0x0, symName: __ZN4Pika6ScriptI19QuickerScriptConfigE12UnaryFunctorINSt3__125pointer_to_unary_functionIddEEddE3argINS_4DumbIdEEEEKNS_8STLValueIN8QStrings7QStringIcLm52EEEEERNS2_5FrameERKT_, symObjAddr: 0x1DC98, symBinAddr: 0x10001E934, symSize: 0x7C }
  - { offset: 0xCD216, size: 0x8, addend: 0x0, symName: __ZN4Pika6ScriptI19QuickerScriptConfigE12UnaryFunctorINSt3__125pointer_to_unary_functionIddEEddED1Ev, symObjAddr: 0x1DC90, symBinAddr: 0x10001E92C, symSize: 0x4 }
  - { offset: 0xCD242, size: 0x8, addend: 0x0, symName: __ZN4Pika6ScriptI19QuickerScriptConfigE12UnaryFunctorINSt3__125pointer_to_unary_functionIddEEddED0Ev, symObjAddr: 0x1DC94, symBinAddr: 0x10001E930, symSize: 0x4 }
  - { offset: 0xCD270, size: 0x8, addend: 0x0, symName: __ZN4Pika6ScriptI19QuickerScriptConfigE12UnaryFunctorINSt3__125pointer_to_unary_functionIddEEddED0Ev, symObjAddr: 0x1DC94, symBinAddr: 0x10001E930, symSize: 0x4 }
  - { offset: 0xCD318, size: 0x8, addend: 0x0, symName: __ZNK8QStrings7QStringIcLm52EE9_iteratorIKcKS1_EixEl, symObjAddr: 0x1E28C, symBinAddr: 0x10001EF28, symSize: 0x38 }
  - { offset: 0xCD3A9, size: 0x8, addend: 0x0, symName: __ZN4Pika12stringToLongINS_8STLValueIN8QStrings7QStringIcLm52EEEEEEElRNT_14const_iteratorERKS7_, symObjAddr: 0x1E2C4, symBinAddr: 0x10001EF60, symSize: 0x184 }
  - { offset: 0xCD55F, size: 0x8, addend: 0x0, symName: __ZN4Pika6ScriptI19QuickerScriptConfigE13BinaryFunctorINSt3__126pointer_to_binary_functionIdddEEdddE8pikaCallERNS2_5FrameE, symObjAddr: 0x1EC24, symBinAddr: 0x10001F8C0, symSize: 0x120 }
  - { offset: 0xCDA12, size: 0x8, addend: 0x0, symName: __ZN4Pika6ScriptI19QuickerScriptConfigE13BinaryFunctorINSt3__126pointer_to_binary_functionIdddEEdddE4callINS_4DumbIdEEEENS_8STLValueIN8QStrings7QStringIcLm52EEEEERKSF_SH_RKT_, symObjAddr: 0x1ED4C, symBinAddr: 0x10001F9E8, symSize: 0x5C }
  - { offset: 0xCDB07, size: 0x8, addend: 0x0, symName: __ZN4Pika6ScriptI19QuickerScriptConfigE13BinaryFunctorINSt3__126pointer_to_binary_functionIdddEEdddED1Ev, symObjAddr: 0x1ED44, symBinAddr: 0x10001F9E0, symSize: 0x4 }
  - { offset: 0xCDB33, size: 0x8, addend: 0x0, symName: __ZN4Pika6ScriptI19QuickerScriptConfigE13BinaryFunctorINSt3__126pointer_to_binary_functionIdddEEdddED0Ev, symObjAddr: 0x1ED48, symBinAddr: 0x10001F9E4, symSize: 0x4 }
  - { offset: 0xCDB61, size: 0x8, addend: 0x0, symName: __ZN4Pika6ScriptI19QuickerScriptConfigE13BinaryFunctorINSt3__126pointer_to_binary_functionIdddEEdddED0Ev, symObjAddr: 0x1ED48, symBinAddr: 0x10001F9E4, symSize: 0x4 }
  - { offset: 0xCDB74, size: 0x8, addend: 0x0, symName: __ZN4Pika6ScriptI19QuickerScriptConfigE12UnaryFunctorINSt3__125pointer_to_unary_functionIdN8QStrings7QStringIcLm52EEEEEdS8_E8pikaCallERNS2_5FrameE, symObjAddr: 0x1EDA8, symBinAddr: 0x10001FA44, symSize: 0x64 }
  - { offset: 0xCDCD7, size: 0x8, addend: 0x0, symName: __ZN4Pika6ScriptI19QuickerScriptConfigE12UnaryFunctorINSt3__125pointer_to_unary_functionIdN8QStrings7QStringIcLm52EEEEEdS8_E3argINS_4DumbIdEEEEKNS_8STLValueIS8_EERNS2_5FrameERKT_, symObjAddr: 0x1EE74, symBinAddr: 0x10001FB10, symSize: 0x7C }
  - { offset: 0xCDE74, size: 0x8, addend: 0x0, symName: __ZN4Pika6ScriptI19QuickerScriptConfigE12UnaryFunctorINSt3__125pointer_to_unary_functionIdN8QStrings7QStringIcLm52EEEEEdS8_E4callIKNS_8STLValueIS8_EES8_EESD_RT_RKNS_4DumbIT0_EE, symObjAddr: 0x1EE14, symBinAddr: 0x10001FAB0, symSize: 0x60 }
  - { offset: 0xCDFF0, size: 0x8, addend: 0x0, symName: __ZN4Pika6ScriptI19QuickerScriptConfigE12UnaryFunctorINSt3__125pointer_to_unary_functionIdN8QStrings7QStringIcLm52EEEEEdS8_ED1Ev, symObjAddr: 0x1EE0C, symBinAddr: 0x10001FAA8, symSize: 0x4 }
  - { offset: 0xCE01C, size: 0x8, addend: 0x0, symName: __ZN4Pika6ScriptI19QuickerScriptConfigE12UnaryFunctorINSt3__125pointer_to_unary_functionIdN8QStrings7QStringIcLm52EEEEEdS8_ED0Ev, symObjAddr: 0x1EE10, symBinAddr: 0x10001FAAC, symSize: 0x4 }
  - { offset: 0xCE04A, size: 0x8, addend: 0x0, symName: __ZN4Pika6ScriptI19QuickerScriptConfigE12UnaryFunctorINSt3__125pointer_to_unary_functionIdN8QStrings7QStringIcLm52EEEEEdS8_ED0Ev, symObjAddr: 0x1EE10, symBinAddr: 0x10001FAAC, symSize: 0x4 }
  - { offset: 0xCE0EA, size: 0x8, addend: 0x0, symName: __ZN4Pika6ScriptI19QuickerScriptConfigE12UnaryFunctorINSt3__125pointer_to_unary_functionIRKNS2_5FrameEbEES8_bE8pikaCallERS6_, symObjAddr: 0x1EEF0, symBinAddr: 0x10001FB8C, symSize: 0x30 }
  - { offset: 0xCE1B1, size: 0x8, addend: 0x0, symName: __ZN4Pika6ScriptI19QuickerScriptConfigE12UnaryFunctorINSt3__125pointer_to_unary_functionIRKNS2_5FrameEbEES8_bED1Ev, symObjAddr: 0x1EF20, symBinAddr: 0x10001FBBC, symSize: 0x4 }
  - { offset: 0xCE1DD, size: 0x8, addend: 0x0, symName: __ZN4Pika6ScriptI19QuickerScriptConfigE12UnaryFunctorINSt3__125pointer_to_unary_functionIRKNS2_5FrameEbEES8_bED0Ev, symObjAddr: 0x1EF24, symBinAddr: 0x10001FBC0, symSize: 0x4 }
  - { offset: 0xCE20B, size: 0x8, addend: 0x0, symName: __ZN4Pika6ScriptI19QuickerScriptConfigE12UnaryFunctorINSt3__125pointer_to_unary_functionIRKNS2_5FrameEbEES8_bED0Ev, symObjAddr: 0x1EF24, symBinAddr: 0x10001FBC0, symSize: 0x4 }
  - { offset: 0xCE28E, size: 0x8, addend: 0x0, symName: __ZN4Pika6ScriptI19QuickerScriptConfigE12UnaryFunctorINSt3__125pointer_to_unary_functionIRNS2_5FrameENS_8STLValueIN8QStrings7QStringIcLm52EEEEEEES7_SC_E8pikaCallES7_, symObjAddr: 0x1EF68, symBinAddr: 0x10001FC04, symSize: 0xC }
  - { offset: 0xCE2C7, size: 0x8, addend: 0x0, symName: __ZN4Pika6ScriptI19QuickerScriptConfigE12UnaryFunctorINSt3__125pointer_to_unary_functionIRNS2_5FrameENS_8STLValueIN8QStrings7QStringIcLm52EEEEEEES7_SC_E8pikaCallES7_, symObjAddr: 0x1EF68, symBinAddr: 0x10001FC04, symSize: 0xC }
  - { offset: 0xCE2EE, size: 0x8, addend: 0x0, symName: __ZN4Pika6ScriptI19QuickerScriptConfigE12UnaryFunctorINSt3__125pointer_to_unary_functionIRNS2_5FrameENS_8STLValueIN8QStrings7QStringIcLm52EEEEEEES7_SC_E8pikaCallES7_, symObjAddr: 0x1EF68, symBinAddr: 0x10001FC04, symSize: 0xC }
  - { offset: 0xCE32E, size: 0x8, addend: 0x0, symName: __ZN4Pika6ScriptI19QuickerScriptConfigE12UnaryFunctorINSt3__125pointer_to_unary_functionIRNS2_5FrameENS_8STLValueIN8QStrings7QStringIcLm52EEEEEEES7_SC_ED1Ev, symObjAddr: 0x1EF74, symBinAddr: 0x10001FC10, symSize: 0x4 }
  - { offset: 0xCE35A, size: 0x8, addend: 0x0, symName: __ZN4Pika6ScriptI19QuickerScriptConfigE12UnaryFunctorINSt3__125pointer_to_unary_functionIRNS2_5FrameENS_8STLValueIN8QStrings7QStringIcLm52EEEEEEES7_SC_ED0Ev, symObjAddr: 0x1EF78, symBinAddr: 0x10001FC14, symSize: 0x4 }
  - { offset: 0xCE388, size: 0x8, addend: 0x0, symName: __ZN4Pika6ScriptI19QuickerScriptConfigE12UnaryFunctorINSt3__125pointer_to_unary_functionIRNS2_5FrameENS_8STLValueIN8QStrings7QStringIcLm52EEEEEEES7_SC_ED0Ev, symObjAddr: 0x1EF78, symBinAddr: 0x10001FC14, symSize: 0x4 }
  - { offset: 0xCE6D5, size: 0x8, addend: 0x0, symName: __ZN4Pika6ScriptI19QuickerScriptConfigE5Frame4tickERKN8QStrings7QStringIcLm52EE9_iteratorIKcKS6_EERKNSt3__14pairIbNS_8STLValueIS6_EEEENS_10PrecedenceEb, symObjAddr: 0x1FB84, symBinAddr: 0x100020820, symSize: 0x54 }
  - { offset: 0xCE780, size: 0x8, addend: 0x0, symName: __ZN4Pika6ScriptI19QuickerScriptConfigE5Frame4exprERN8QStrings7QStringIcLm52EE9_iteratorIKcKS6_EERKSA_RNSt3__14pairIbNS_8STLValueIS6_EEEEbbNS_10PrecedenceE, symObjAddr: 0x1FBD8, symBinAddr: 0x100020874, symSize: 0x1F8 }
  - { offset: 0xCE78B, size: 0x8, addend: 0x0, symName: __ZN4Pika6ScriptI19QuickerScriptConfigE5Frame4exprERN8QStrings7QStringIcLm52EE9_iteratorIKcKS6_EERKSA_RNSt3__14pairIbNS_8STLValueIS6_EEEEbbNS_10PrecedenceE, symObjAddr: 0x1FBD8, symBinAddr: 0x100020874, symSize: 0x1F8 }
  - { offset: 0xCEB92, size: 0x8, addend: 0x0, symName: __ZN4Pika6ScriptI19QuickerScriptConfigE5Frame6rvalueERKNSt3__14pairIbNS_8STLValueIN8QStrings7QStringIcLm52EEEEEEEb, symObjAddr: 0x1FDD0, symBinAddr: 0x100020A6C, symSize: 0x34 }
  - { offset: 0xCEC6D, size: 0x8, addend: 0x0, symName: __ZN4Pika6ScriptI19QuickerScriptConfigE5Frame3preERN8QStrings7QStringIcLm52EE9_iteratorIKcKS6_EERKSA_RNSt3__14pairIbNS_8STLValueIS6_EEEEb, symObjAddr: 0x2007C, symBinAddr: 0x100020D18, symSize: 0x1580 }
  - { offset: 0xD2874, size: 0x8, addend: 0x0, symName: __ZN4Pika6ScriptI19QuickerScriptConfigE5Frame4postERN8QStrings7QStringIcLm52EE9_iteratorIKcKS6_EERKSA_RNSt3__14pairIbNS_8STLValueIS6_EEEEbNS_10PrecedenceE, symObjAddr: 0x215FC, symBinAddr: 0x100022298, symSize: 0x18E0 }
  - { offset: 0xD737F, size: 0x8, addend: 0x0, symName: __ZN4Pika6ScriptI19QuickerScriptConfigE5Frame5tokenERN8QStrings7QStringIcLm52EE9_iteratorIKcKS6_EERKSA_PS8_, symObjAddr: 0x23D94, symBinAddr: 0x100024A30, symSize: 0x174 }
  - { offset: 0xD753C, size: 0x8, addend: 0x0, symName: __ZNK4Pika8STLValueIN8QStrings7QStringIcLm52EEEEcvlEv, symObjAddr: 0x23F08, symBinAddr: 0x100024BA4, symSize: 0x184 }
  - { offset: 0xD7547, size: 0x8, addend: 0x0, symName: __ZN4Pika6ScriptI19QuickerScriptConfigE5Frame6lvalueERKNSt3__14pairIbNS_8STLValueIN8QStrings7QStringIcLm52EEEEEEE, symObjAddr: 0x23580, symBinAddr: 0x10002421C, symSize: 0xC4 }
  - { offset: 0xD7775, size: 0x8, addend: 0x0, symName: __ZN4Pika6ScriptI19QuickerScriptConfigE5Frame8termExprERN8QStrings7QStringIcLm52EE9_iteratorIKcKS6_EERKSA_RNSt3__14pairIbNS_8STLValueIS6_EEEEbbNS_10PrecedenceEc, symObjAddr: 0x23310, symBinAddr: 0x100023FAC, symSize: 0x1E8 }
  - { offset: 0xD7E23, size: 0x8, addend: 0x0, symName: __ZN4Pika6ScriptI19QuickerScriptConfigE5Frame8binaryOpINSt3__112not_equal_toIN8QStrings7QStringIcLm52EEEEEEEbRNS9_9_iteratorIKcKS9_EERKSE_RNS5_4pairIbNS_8STLValueIS9_EEEEbNS_10PrecedenceEiSN_T_, symObjAddr: 0x25EB8, symBinAddr: 0x100026618, symSize: 0x210 }
  - { offset: 0xD870B, size: 0x8, addend: 0x0, symName: __ZN4Pika6ScriptI19QuickerScriptConfigE5Frame12assignableOpIPFlllEEEbRN8QStrings7QStringIcLm52EE9_iteratorIKcKS9_EERKSD_RNSt3__14pairIbNS_8STLValueIS9_EEEEbNS_10PrecedenceEiSN_T_, symObjAddr: 0x252FC, symBinAddr: 0x100025A5C, symSize: 0x2AC }
  - { offset: 0xD9089, size: 0x8, addend: 0x0, symName: __ZN4Pika6ScriptI19QuickerScriptConfigE5Frame5lgtOpINSt3__14lessINS_8STLValueIN8QStrings7QStringIcLm52EEEEEEENS5_10less_equalISB_EEPFmmiEEEbRNSA_9_iteratorIKcKSA_EERKSK_RNS5_4pairIbSB_EEbNS_10PrecedenceERKT_RKT0_T1_, symObjAddr: 0x25BC8, symBinAddr: 0x100026328, symSize: 0x178 }
  - { offset: 0xD923F, size: 0x8, addend: 0x0, symName: __ZN4Pika6ScriptI19QuickerScriptConfigE5Frame5lgtOpINSt3__17greaterINS_8STLValueIN8QStrings7QStringIcLm52EEEEEEENS5_13greater_equalISB_EEPFmmiEEEbRNSA_9_iteratorIKcKSA_EERKSK_RNS5_4pairIbSB_EEbNS_10PrecedenceERKT_RKT0_T1_, symObjAddr: 0x25D40, symBinAddr: 0x1000264A0, symSize: 0x178 }
  - { offset: 0xD9265, size: 0x8, addend: 0x0, symName: __ZN4Pika6ScriptI19QuickerScriptConfigE5Frame8addSubOpINSt3__14plusIdEEEEbRN8QStrings7QStringIcLm52EE9_iteratorIKcKSA_EERKSE_RNS5_4pairIbNS_8STLValueISA_EEEEbNS_10PrecedenceERKT_, symObjAddr: 0x249F8, symBinAddr: 0x100025158, symSize: 0x1E4 }
  - { offset: 0xD9871, size: 0x8, addend: 0x0, symName: __ZN4Pika6ScriptI19QuickerScriptConfigE5Frame12assignableOpINSt3__110multipliesIdEEEEbRN8QStrings7QStringIcLm52EE9_iteratorIKcKSA_EERKSE_RNS5_4pairIbNS_8STLValueISA_EEEEbNS_10PrecedenceEiSN_T_, symObjAddr: 0x25064, symBinAddr: 0x1000257C4, symSize: 0x298 }
  - { offset: 0xDA1CD, size: 0x8, addend: 0x0, symName: __ZN4Pika6ScriptI19QuickerScriptConfigE5Frame12assignableOpIPFdddEEEbRN8QStrings7QStringIcLm52EE9_iteratorIKcKS9_EERKSD_RNSt3__14pairIbNS_8STLValueIS9_EEEEbNS_10PrecedenceEiSN_T_, symObjAddr: 0x25668, symBinAddr: 0x100025DC8, symSize: 0x2B4 }
  - { offset: 0xDAB42, size: 0x8, addend: 0x0, symName: __ZN4Pika6ScriptI19QuickerScriptConfigE5Frame8binaryOpINSt3__18equal_toIN8QStrings7QStringIcLm52EEEEEEEbRNS9_9_iteratorIKcKS9_EERKSE_RNS5_4pairIbNS_8STLValueIS9_EEEEbNS_10PrecedenceEiSN_T_, symObjAddr: 0x262AC, symBinAddr: 0x100026A0C, symSize: 0x210 }
  - { offset: 0xDB40D, size: 0x8, addend: 0x0, symName: __ZN4Pika6ScriptI19QuickerScriptConfigE5Frame12assignableOpINSt3__14plusIN8QStrings7QStringIcLm52EEEEEEEbRNS9_9_iteratorIKcKS9_EERKSE_RNS5_4pairIbNS_8STLValueIS9_EEEEbNS_10PrecedenceEiSN_T_, symObjAddr: 0x24DC0, symBinAddr: 0x100025520, symSize: 0x2A4 }
  - { offset: 0xDBE93, size: 0x8, addend: 0x0, symName: __ZN4Pika6ScriptI19QuickerScriptConfigE5Frame5lgtOpINSt3__17greaterINS_8STLValueIN8QStrings7QStringIcLm52EEEEEEENS5_13greater_equalISB_EEPFmmiEEEbRNSA_9_iteratorIKcKSA_EERKSK_RNS5_4pairIbSB_EEbNS_10PrecedenceERKT_RKT0_T1_, symObjAddr: 0x25D40, symBinAddr: 0x1000264A0, symSize: 0x178 }
  - { offset: 0xDC049, size: 0x8, addend: 0x0, symName: __ZN4Pika6ScriptI19QuickerScriptConfigE5Frame8binaryOpINSt3__112not_equal_toIN8QStrings7QStringIcLm52EEEEEEEbRNS9_9_iteratorIKcKS9_EERKSE_RNS5_4pairIbNS_8STLValueIS9_EEEEbNS_10PrecedenceEiSN_T_, symObjAddr: 0x25EB8, symBinAddr: 0x100026618, symSize: 0x210 }
  - { offset: 0xDC06F, size: 0x8, addend: 0x0, symName: __ZN4Pika6ScriptI19QuickerScriptConfigE5Frame8addSubOpINSt3__15minusIdEEEEbRN8QStrings7QStringIcLm52EE9_iteratorIKcKSA_EERKSE_RNS5_4pairIbNS_8STLValueISA_EEEEbNS_10PrecedenceERKT_, symObjAddr: 0x24BDC, symBinAddr: 0x10002533C, symSize: 0x1E4 }
  - { offset: 0xDC686, size: 0x8, addend: 0x0, symName: __ZN4Pika6ScriptI19QuickerScriptConfigE5Frame8binaryOpINSt3__18equal_toINS_8STLValueIN8QStrings7QStringIcLm52EEEEEEEEEbRNSA_9_iteratorIKcKSA_EERKSG_RNS5_4pairIbSB_EEbNS_10PrecedenceEiSN_T_, symObjAddr: 0x264BC, symBinAddr: 0x100026C1C, symSize: 0x1E4 }
  - { offset: 0xDCF0B, size: 0x8, addend: 0x0, symName: __ZN4Pika6ScriptI19QuickerScriptConfigE5Frame8binaryOpINSt3__112not_equal_toINS_8STLValueIN8QStrings7QStringIcLm52EEEEEEEEEbRNSA_9_iteratorIKcKSA_EERKSG_RNS5_4pairIbSB_EEbNS_10PrecedenceEiSN_T_, symObjAddr: 0x260C8, symBinAddr: 0x100026828, symSize: 0x1E4 }
  - { offset: 0xDD7AD, size: 0x8, addend: 0x0, symName: __ZN4Pika6ScriptI19QuickerScriptConfigE5Frame12assignableOpINSt3__17dividesIdEEEEbRN8QStrings7QStringIcLm52EE9_iteratorIKcKSA_EERKSE_RNS5_4pairIbNS_8STLValueISA_EEEEbNS_10PrecedenceEiSN_T_, symObjAddr: 0x24760, symBinAddr: 0x100024EC0, symSize: 0x298 }
  - { offset: 0xDE109, size: 0x8, addend: 0x0, symName: __ZN4Pika6ScriptI19QuickerScriptConfigE5Frame12assignableOpIPFmmmEEEbRN8QStrings7QStringIcLm52EE9_iteratorIKcKS9_EERKSD_RNSt3__14pairIbNS_8STLValueIS9_EEEEbNS_10PrecedenceEiSN_T_, symObjAddr: 0x2591C, symBinAddr: 0x10002607C, symSize: 0x2AC }
  - { offset: 0xDEE96, size: 0x8, addend: 0x0, symName: __ZN4Pika6ScriptI19QuickerScriptConfigE5Frame8binaryOpINSt3__17dividesIdEEEEbRN8QStrings7QStringIcLm52EE9_iteratorIKcKSA_EERKSE_RNS5_4pairIbNS_8STLValueISA_EEEEbNS_10PrecedenceEiSN_T_, symObjAddr: 0x2695C, symBinAddr: 0x1000270BC, symSize: 0x1F8 }
  - { offset: 0xDF72F, size: 0x8, addend: 0x0, symName: __ZN4Pika6ScriptI19QuickerScriptConfigE5Frame12assignableOpINSt3__14plusIdEEEEbRN8QStrings7QStringIcLm52EE9_iteratorIKcKSA_EERKSE_RNS5_4pairIbNS_8STLValueISA_EEEEbNS_10PrecedenceEiSN_T_, symObjAddr: 0x26B54, symBinAddr: 0x1000272B4, symSize: 0x298 }
  - { offset: 0xE00A9, size: 0x8, addend: 0x0, symName: __ZN4Pika6ScriptI19QuickerScriptConfigE5Frame12assignableOpINSt3__15minusIdEEEEbRN8QStrings7QStringIcLm52EE9_iteratorIKcKSA_EERKSE_RNS5_4pairIbNS_8STLValueISA_EEEEbNS_10PrecedenceEiSN_T_, symObjAddr: 0x26FE4, symBinAddr: 0x100027744, symSize: 0x298 }
  - { offset: 0xE0A57, size: 0x8, addend: 0x0, symName: __ZN4Pika6ScriptI19QuickerScriptConfigE5Frame8binaryOpINSt3__14plusIN8QStrings7QStringIcLm52EEEEEEEbRNS9_9_iteratorIKcKS9_EERKSE_RNS5_4pairIbNS_8STLValueIS9_EEEEbNS_10PrecedenceEiSN_T_, symObjAddr: 0x27474, symBinAddr: 0x100027BD4, symSize: 0x1EC }
  - { offset: 0xE13A6, size: 0x8, addend: 0x0, symName: __ZN4Pika6ScriptI19QuickerScriptConfigE5Frame8binaryOpINSt3__110multipliesIdEEEEbRN8QStrings7QStringIcLm52EE9_iteratorIKcKSA_EERKSE_RNS5_4pairIbNS_8STLValueISA_EEEEbNS_10PrecedenceEiSN_T_, symObjAddr: 0x27660, symBinAddr: 0x100027DC0, symSize: 0x1F8 }
  - { offset: 0xE1C3F, size: 0x8, addend: 0x0, symName: __ZN4Pika6ScriptI19QuickerScriptConfigE5Frame8binaryOpIPFlllEEEbRN8QStrings7QStringIcLm52EE9_iteratorIKcKS9_EERKSD_RNSt3__14pairIbNS_8STLValueIS9_EEEEbNS_10PrecedenceEiSN_T_, symObjAddr: 0x27858, symBinAddr: 0x100027FB8, symSize: 0x200 }
  - { offset: 0xE24D8, size: 0x8, addend: 0x0, symName: __ZN4Pika6ScriptI19QuickerScriptConfigE5Frame6intDivEll, symObjAddr: 0x255A8, symBinAddr: 0x100025D08, symSize: 0xC0 }
  - { offset: 0xE2704, size: 0x8, addend: 0x0, symName: __ZN4Pika6ScriptI19QuickerScriptConfigE5Frame8binaryOpIPFdddEEEbRN8QStrings7QStringIcLm52EE9_iteratorIKcKS9_EERKSD_RNSt3__14pairIbNS_8STLValueIS9_EEEEbNS_10PrecedenceEiSN_T_, symObjAddr: 0x27A58, symBinAddr: 0x1000281B8, symSize: 0x204 }
  - { offset: 0xE2F97, size: 0x8, addend: 0x0, symName: __ZN4Pika6ScriptI19QuickerScriptConfigE5Frame8binaryOpIPFmmmEEEbRN8QStrings7QStringIcLm52EE9_iteratorIKcKS9_EERKSD_RNSt3__14pairIbNS_8STLValueIS9_EEEEbNS_10PrecedenceEiSN_T_, symObjAddr: 0x27C5C, symBinAddr: 0x1000283BC, symSize: 0x200 }
  - { offset: 0xE386E, size: 0x8, addend: 0x0, symName: __ZN4Pika6ScriptI19QuickerScriptConfigE5Frame12assignableOpIPFmmiEEEbRN8QStrings7QStringIcLm52EE9_iteratorIKcKS9_EERKSD_RNSt3__14pairIbNS_8STLValueIS9_EEEEbNS_10PrecedenceEiSN_T_, symObjAddr: 0x27E5C, symBinAddr: 0x1000285BC, symSize: 0x2AC }
  - { offset: 0xE4208, size: 0x8, addend: 0x0, symName: __ZN4Pika6ScriptI19QuickerScriptConfigE5Frame8binaryOpINSt3__110less_equalINS_8STLValueIN8QStrings7QStringIcLm52EEEEEEEEEbRNSA_9_iteratorIKcKSA_EERKSG_RNS5_4pairIbSB_EEbNS_10PrecedenceEiSN_T_, symObjAddr: 0x28108, symBinAddr: 0x100028868, symSize: 0x1E4 }
  - { offset: 0xE4AAA, size: 0x8, addend: 0x0, symName: __ZN4Pika6ScriptI19QuickerScriptConfigE5Frame8binaryOpINSt3__14lessINS_8STLValueIN8QStrings7QStringIcLm52EEEEEEEEEbRNSA_9_iteratorIKcKSA_EERKSG_RNS5_4pairIbSB_EEbNS_10PrecedenceEiSN_T_, symObjAddr: 0x282EC, symBinAddr: 0x100028A4C, symSize: 0x1E4 }
  - { offset: 0xE5356, size: 0x8, addend: 0x0, symName: __ZN4Pika6ScriptI19QuickerScriptConfigE5Frame8binaryOpINSt3__113greater_equalINS_8STLValueIN8QStrings7QStringIcLm52EEEEEEEEEbRNSA_9_iteratorIKcKSA_EERKSG_RNS5_4pairIbSB_EEbNS_10PrecedenceEiSN_T_, symObjAddr: 0x28748, symBinAddr: 0x100028EA8, symSize: 0x1E4 }
  - { offset: 0xE5BF8, size: 0x8, addend: 0x0, symName: __ZN4Pika6ScriptI19QuickerScriptConfigE5Frame8binaryOpINSt3__17greaterINS_8STLValueIN8QStrings7QStringIcLm52EEEEEEEEEbRNSA_9_iteratorIKcKSA_EERKSG_RNS5_4pairIbSB_EEbNS_10PrecedenceEiSN_T_, symObjAddr: 0x2892C, symBinAddr: 0x10002908C, symSize: 0x1E4 }
  - { offset: 0xE657E, size: 0x8, addend: 0x0, symName: __ZNK4Pika8STLValueIN8QStrings7QStringIcLm52EEEEeqERKS4_, symObjAddr: 0x28B10, symBinAddr: 0x100029270, symSize: 0x78 }
  - { offset: 0xE67C5, size: 0x8, addend: 0x0, symName: __ZN4Pika6ScriptI19QuickerScriptConfigE5Frame8binaryOpINSt3__14plusIdEEEEbRN8QStrings7QStringIcLm52EE9_iteratorIKcKSA_EERKSE_RNS5_4pairIbNS_8STLValueISA_EEEEbNS_10PrecedenceEiSN_T_, symObjAddr: 0x26DEC, symBinAddr: 0x10002754C, symSize: 0x1F8 }
  - { offset: 0xE7086, size: 0x8, addend: 0x0, symName: __ZN4Pika6ScriptI19QuickerScriptConfigE5Frame8binaryOpINSt3__15minusIdEEEEbRN8QStrings7QStringIcLm52EE9_iteratorIKcKSA_EERKSE_RNS5_4pairIbNS_8STLValueISA_EEEEbNS_10PrecedenceEiSN_T_, symObjAddr: 0x2727C, symBinAddr: 0x1000279DC, symSize: 0x1F8 }
  - { offset: 0xE7A0F, size: 0x8, addend: 0x0, symName: __ZN4Pika6ScriptI19QuickerScriptConfigE5Frame8binaryOpIPFmmiEEEbRN8QStrings7QStringIcLm52EE9_iteratorIKcKS9_EERKSD_RNSt3__14pairIbNS_8STLValueIS9_EEEEbNS_10PrecedenceEiSN_T_, symObjAddr: 0x284D0, symBinAddr: 0x100028C30, symSize: 0x200 }
  - { offset: 0xE833C, size: 0x8, addend: 0x0, symName: __ZNK4Pika8STLValueIN8QStrings7QStringIcLm52EEEEltERKS4_, symObjAddr: 0x286D0, symBinAddr: 0x100028E30, symSize: 0x78 }
  - { offset: 0xE8608, size: 0x8, addend: 0x0, symName: __ZN4Pika6ScriptI19QuickerScriptConfigE12UnaryFunctorINSt3__125pointer_to_unary_functionIRKNS2_5FrameENS_8STLValueIN8QStrings7QStringIcLm52EEEEEEES8_SD_E8pikaCallERS6_, symObjAddr: 0x28B88, symBinAddr: 0x1000292E8, symSize: 0xC }
  - { offset: 0xE8641, size: 0x8, addend: 0x0, symName: __ZN4Pika6ScriptI19QuickerScriptConfigE12UnaryFunctorINSt3__125pointer_to_unary_functionIRKNS2_5FrameENS_8STLValueIN8QStrings7QStringIcLm52EEEEEEES8_SD_E8pikaCallERS6_, symObjAddr: 0x28B88, symBinAddr: 0x1000292E8, symSize: 0xC }
  - { offset: 0xE8668, size: 0x8, addend: 0x0, symName: __ZN4Pika6ScriptI19QuickerScriptConfigE12UnaryFunctorINSt3__125pointer_to_unary_functionIRKNS2_5FrameENS_8STLValueIN8QStrings7QStringIcLm52EEEEEEES8_SD_E8pikaCallERS6_, symObjAddr: 0x28B88, symBinAddr: 0x1000292E8, symSize: 0xC }
  - { offset: 0xE86A8, size: 0x8, addend: 0x0, symName: __ZN4Pika6ScriptI19QuickerScriptConfigE12UnaryFunctorINSt3__125pointer_to_unary_functionIRKNS2_5FrameENS_8STLValueIN8QStrings7QStringIcLm52EEEEEEES8_SD_ED1Ev, symObjAddr: 0x28B94, symBinAddr: 0x1000292F4, symSize: 0x4 }
  - { offset: 0xE86D4, size: 0x8, addend: 0x0, symName: __ZN4Pika6ScriptI19QuickerScriptConfigE12UnaryFunctorINSt3__125pointer_to_unary_functionIRKNS2_5FrameENS_8STLValueIN8QStrings7QStringIcLm52EEEEEEES8_SD_ED0Ev, symObjAddr: 0x28B98, symBinAddr: 0x1000292F8, symSize: 0x4 }
  - { offset: 0xE8702, size: 0x8, addend: 0x0, symName: __ZN4Pika6ScriptI19QuickerScriptConfigE12UnaryFunctorINSt3__125pointer_to_unary_functionIRKNS2_5FrameENS_8STLValueIN8QStrings7QStringIcLm52EEEEEEES8_SD_ED0Ev, symObjAddr: 0x28B98, symBinAddr: 0x1000292F8, symSize: 0x4 }
  - { offset: 0xE8789, size: 0x8, addend: 0x0, symName: __ZN4Pika6ScriptI19QuickerScriptConfigE13BinaryFunctorINSt3__126pointer_to_binary_functionIRKN8QStrings7QStringIcLm52EEESA_mEESA_SA_mE8pikaCallERNS2_5FrameE, symObjAddr: 0x28B9C, symBinAddr: 0x1000292FC, symSize: 0x124 }
  - { offset: 0xE8CA9, size: 0x8, addend: 0x0, symName: __ZN4Pika6ScriptI19QuickerScriptConfigE13BinaryFunctorINSt3__126pointer_to_binary_functionIRKN8QStrings7QStringIcLm52EEESA_mEESA_SA_mED1Ev, symObjAddr: 0x28CC0, symBinAddr: 0x100029420, symSize: 0x4 }
  - { offset: 0xE8CD5, size: 0x8, addend: 0x0, symName: __ZN4Pika6ScriptI19QuickerScriptConfigE13BinaryFunctorINSt3__126pointer_to_binary_functionIRKN8QStrings7QStringIcLm52EEESA_mEESA_SA_mED0Ev, symObjAddr: 0x28CC4, symBinAddr: 0x100029424, symSize: 0x4 }
  - { offset: 0xE8D03, size: 0x8, addend: 0x0, symName: __ZN4Pika6ScriptI19QuickerScriptConfigE13BinaryFunctorINSt3__126pointer_to_binary_functionIRKN8QStrings7QStringIcLm52EEESA_mEESA_SA_mED0Ev, symObjAddr: 0x28CC4, symBinAddr: 0x100029424, symSize: 0x4 }
  - { offset: 0xE8D98, size: 0x8, addend: 0x0, symName: __ZN4Pika6ScriptI19QuickerScriptConfigE12UnaryFunctorINSt3__125pointer_to_unary_functionIRNS2_5FrameEvEES7_vE8pikaCallES7_, symObjAddr: 0x28D60, symBinAddr: 0x1000294C0, symSize: 0x48 }
  - { offset: 0xE8EA8, size: 0x8, addend: 0x0, symName: __ZN4Pika6ScriptI19QuickerScriptConfigE12UnaryFunctorINSt3__125pointer_to_unary_functionIRNS2_5FrameEvEES7_vED1Ev, symObjAddr: 0x28DA8, symBinAddr: 0x100029508, symSize: 0x4 }
  - { offset: 0xE8ED4, size: 0x8, addend: 0x0, symName: __ZN4Pika6ScriptI19QuickerScriptConfigE12UnaryFunctorINSt3__125pointer_to_unary_functionIRNS2_5FrameEvEES7_vED0Ev, symObjAddr: 0x28DAC, symBinAddr: 0x10002950C, symSize: 0x4 }
  - { offset: 0xE8F02, size: 0x8, addend: 0x0, symName: __ZN4Pika6ScriptI19QuickerScriptConfigE12UnaryFunctorINSt3__125pointer_to_unary_functionIRNS2_5FrameEvEES7_vED0Ev, symObjAddr: 0x28DAC, symBinAddr: 0x10002950C, symSize: 0x4 }
  - { offset: 0xE8F2B, size: 0x8, addend: 0x0, symName: __ZNSt3__16vectorINS_4pairIN8QStrings7QStringIcLm52EEEN4Pika8STLValueIS4_EEEENS_9allocatorIS8_EEE22__base_destruct_at_endB8ne180100EPS8_, symObjAddr: 0x28DF0, symBinAddr: 0x100029550, symSize: 0x58 }
  - { offset: 0xE918C, size: 0x8, addend: 0x0, symName: __ZNSt3__16vectorIN4Pika8STLValueIN8QStrings7QStringIcLm52EEEEENS_9allocatorIS6_EEE18__construct_at_endEm, symObjAddr: 0x28F60, symBinAddr: 0x100029670, symSize: 0x74 }
  - { offset: 0xE919C, size: 0x8, addend: 0x0, symName: __ZNSt3__16vectorIN4Pika8STLValueIN8QStrings7QStringIcLm52EEEEENS_9allocatorIS6_EEE18__construct_at_endEm, symObjAddr: 0x28F60, symBinAddr: 0x100029670, symSize: 0x74 }
  - { offset: 0xE9625, size: 0x8, addend: 0x0, symName: __ZN4Pika6ScriptI19QuickerScriptConfigE12UnaryFunctorINSt3__125pointer_to_unary_functionIRKN8QStrings7QStringIcLm52EEEmEESA_mE8pikaCallERNS2_5FrameE, symObjAddr: 0x2909C, symBinAddr: 0x100029754, symSize: 0x68 }
  - { offset: 0xE9806, size: 0x8, addend: 0x0, symName: __ZN4Pika6ScriptI19QuickerScriptConfigE12UnaryFunctorINSt3__125pointer_to_unary_functionIRKN8QStrings7QStringIcLm52EEEmEESA_mE3argINS_4DumbISA_EEEEKNS_8STLValueIS8_EERNS2_5FrameERKT_, symObjAddr: 0x2910C, symBinAddr: 0x1000297C4, symSize: 0x7C }
  - { offset: 0xE9998, size: 0x8, addend: 0x0, symName: __ZN4Pika6ScriptI19QuickerScriptConfigE12UnaryFunctorINSt3__125pointer_to_unary_functionIRKN8QStrings7QStringIcLm52EEEmEESA_mED1Ev, symObjAddr: 0x29104, symBinAddr: 0x1000297BC, symSize: 0x4 }
  - { offset: 0xE99C4, size: 0x8, addend: 0x0, symName: __ZN4Pika6ScriptI19QuickerScriptConfigE12UnaryFunctorINSt3__125pointer_to_unary_functionIRKN8QStrings7QStringIcLm52EEEmEESA_mED0Ev, symObjAddr: 0x29108, symBinAddr: 0x1000297C0, symSize: 0x4 }
  - { offset: 0xE99F2, size: 0x8, addend: 0x0, symName: __ZN4Pika6ScriptI19QuickerScriptConfigE12UnaryFunctorINSt3__125pointer_to_unary_functionIRKN8QStrings7QStringIcLm52EEEmEESA_mED0Ev, symObjAddr: 0x29108, symBinAddr: 0x1000297C0, symSize: 0x4 }
  - { offset: 0xE9A05, size: 0x8, addend: 0x0, symName: __ZN4Pika6ScriptI19QuickerScriptConfigE12UnaryFunctorINSt3__125pointer_to_unary_functionIN8QStrings7QStringIcLm52EEES8_EES8_S8_E8pikaCallERNS2_5FrameE, symObjAddr: 0x29188, symBinAddr: 0x100029840, symSize: 0x64 }
  - { offset: 0xE9B68, size: 0x8, addend: 0x0, symName: __ZN4Pika6ScriptI19QuickerScriptConfigE12UnaryFunctorINSt3__125pointer_to_unary_functionIN8QStrings7QStringIcLm52EEES8_EES8_S8_E3argINS_4DumbIS8_EEEEKNS_8STLValueIS8_EERNS2_5FrameERKT_, symObjAddr: 0x29284, symBinAddr: 0x10002993C, symSize: 0x7C }
  - { offset: 0xE9CFA, size: 0x8, addend: 0x0, symName: __ZN4Pika6ScriptI19QuickerScriptConfigE12UnaryFunctorINSt3__125pointer_to_unary_functionIN8QStrings7QStringIcLm52EEES8_EES8_S8_E4callIKNS_8STLValueIS8_EES8_EESD_RT_RKNS_4DumbIT0_EE, symObjAddr: 0x291F4, symBinAddr: 0x1000298AC, symSize: 0x90 }
  - { offset: 0xE9F42, size: 0x8, addend: 0x0, symName: __ZN4Pika6ScriptI19QuickerScriptConfigE12UnaryFunctorINSt3__125pointer_to_unary_functionIN8QStrings7QStringIcLm52EEES8_EES8_S8_ED1Ev, symObjAddr: 0x291EC, symBinAddr: 0x1000298A4, symSize: 0x4 }
  - { offset: 0xE9F6E, size: 0x8, addend: 0x0, symName: __ZN4Pika6ScriptI19QuickerScriptConfigE12UnaryFunctorINSt3__125pointer_to_unary_functionIN8QStrings7QStringIcLm52EEES8_EES8_S8_ED0Ev, symObjAddr: 0x291F0, symBinAddr: 0x1000298A8, symSize: 0x4 }
  - { offset: 0xE9F9C, size: 0x8, addend: 0x0, symName: __ZN4Pika6ScriptI19QuickerScriptConfigE12UnaryFunctorINSt3__125pointer_to_unary_functionIN8QStrings7QStringIcLm52EEES8_EES8_S8_ED0Ev, symObjAddr: 0x291F0, symBinAddr: 0x1000298A8, symSize: 0x4 }
  - { offset: 0xE9FAF, size: 0x8, addend: 0x0, symName: __ZNKSt3__125pointer_to_unary_functionIN8QStrings7QStringIcLm52EEES3_EclB8ne180100ES3_, symObjAddr: 0x29300, symBinAddr: 0x1000299B8, symSize: 0x64 }
  - { offset: 0xEA196, size: 0x8, addend: 0x0, symName: __ZN4Pika6ScriptI19QuickerScriptConfigE12UnaryFunctorINSt3__125pointer_to_unary_functionIRKN8QStrings7QStringIcLm52EEEjEESA_jE8pikaCallERNS2_5FrameE, symObjAddr: 0x29364, symBinAddr: 0x100029A1C, symSize: 0x68 }
  - { offset: 0xEA36C, size: 0x8, addend: 0x0, symName: __ZN4Pika6ScriptI19QuickerScriptConfigE12UnaryFunctorINSt3__125pointer_to_unary_functionIRKN8QStrings7QStringIcLm52EEEjEESA_jE3argINS_4DumbISA_EEEEKNS_8STLValueIS8_EERNS2_5FrameERKT_, symObjAddr: 0x293D4, symBinAddr: 0x100029A8C, symSize: 0x7C }
  - { offset: 0xEA4FE, size: 0x8, addend: 0x0, symName: __ZN4Pika8STLValueIN8QStrings7QStringIcLm52EEEEC2Ej, symObjAddr: 0x29450, symBinAddr: 0x100029B08, symSize: 0x60 }
  - { offset: 0xEA5F0, size: 0x8, addend: 0x0, symName: __ZN4Pika6ScriptI19QuickerScriptConfigE12UnaryFunctorINSt3__125pointer_to_unary_functionIRKN8QStrings7QStringIcLm52EEEjEESA_jED1Ev, symObjAddr: 0x293CC, symBinAddr: 0x100029A84, symSize: 0x4 }
  - { offset: 0xEA61C, size: 0x8, addend: 0x0, symName: __ZN4Pika6ScriptI19QuickerScriptConfigE12UnaryFunctorINSt3__125pointer_to_unary_functionIRKN8QStrings7QStringIcLm52EEEjEESA_jED0Ev, symObjAddr: 0x293D0, symBinAddr: 0x100029A88, symSize: 0x4 }
  - { offset: 0xEA64A, size: 0x8, addend: 0x0, symName: __ZN4Pika6ScriptI19QuickerScriptConfigE12UnaryFunctorINSt3__125pointer_to_unary_functionIRKN8QStrings7QStringIcLm52EEEjEESA_jED0Ev, symObjAddr: 0x293D0, symBinAddr: 0x100029A88, symSize: 0x4 }
  - { offset: 0xEA6C2, size: 0x8, addend: 0x0, symName: __ZN4Pika6ScriptI19QuickerScriptConfigE12UnaryFunctorINSt3__125pointer_to_unary_functionIRNS2_5FrameEmEES7_mE8pikaCallES7_, symObjAddr: 0x294B0, symBinAddr: 0x100029B68, symSize: 0x30 }
  - { offset: 0xEA790, size: 0x8, addend: 0x0, symName: __ZN4Pika6ScriptI19QuickerScriptConfigE12UnaryFunctorINSt3__125pointer_to_unary_functionIRNS2_5FrameEmEES7_mED1Ev, symObjAddr: 0x294E0, symBinAddr: 0x100029B98, symSize: 0x4 }
  - { offset: 0xEA7BC, size: 0x8, addend: 0x0, symName: __ZN4Pika6ScriptI19QuickerScriptConfigE12UnaryFunctorINSt3__125pointer_to_unary_functionIRNS2_5FrameEmEES7_mED0Ev, symObjAddr: 0x294E4, symBinAddr: 0x100029B9C, symSize: 0x4 }
  - { offset: 0xEA7EA, size: 0x8, addend: 0x0, symName: __ZN4Pika6ScriptI19QuickerScriptConfigE12UnaryFunctorINSt3__125pointer_to_unary_functionIRNS2_5FrameEmEES7_mED0Ev, symObjAddr: 0x294E4, symBinAddr: 0x100029B9C, symSize: 0x4 }
  - { offset: 0xEA8A2, size: 0x8, addend: 0x0, symName: __ZN4Pika6ScriptI19QuickerScriptConfigE12UnaryFunctorINSt3__125pointer_to_unary_functionIRKNS2_5FrameEN8QStrings7QStringIcLm52EEEEES8_SB_E8pikaCallERS6_, symObjAddr: 0x297D4, symBinAddr: 0x100029E8C, symSize: 0x58 }
  - { offset: 0xEAA18, size: 0x8, addend: 0x0, symName: __ZN4Pika6ScriptI19QuickerScriptConfigE12UnaryFunctorINSt3__125pointer_to_unary_functionIRKNS2_5FrameEN8QStrings7QStringIcLm52EEEEES8_SB_ED1Ev, symObjAddr: 0x2982C, symBinAddr: 0x100029EE4, symSize: 0x4 }
  - { offset: 0xEAA44, size: 0x8, addend: 0x0, symName: __ZN4Pika6ScriptI19QuickerScriptConfigE12UnaryFunctorINSt3__125pointer_to_unary_functionIRKNS2_5FrameEN8QStrings7QStringIcLm52EEEEES8_SB_ED0Ev, symObjAddr: 0x29830, symBinAddr: 0x100029EE8, symSize: 0x4 }
  - { offset: 0xEAA72, size: 0x8, addend: 0x0, symName: __ZN4Pika6ScriptI19QuickerScriptConfigE12UnaryFunctorINSt3__125pointer_to_unary_functionIRKNS2_5FrameEN8QStrings7QStringIcLm52EEEEES8_SB_ED0Ev, symObjAddr: 0x29830, symBinAddr: 0x100029EE8, symSize: 0x4 }
  - { offset: 0xEAAE1, size: 0x8, addend: 0x0, symName: __ZN4Pika6ScriptI19QuickerScriptConfigE12UnaryFunctorINSt3__125pointer_to_unary_functionIRKN8QStrings7QStringIcLm52EEEvEESA_vE8pikaCallERNS2_5FrameE, symObjAddr: 0x29834, symBinAddr: 0x100029EEC, symSize: 0x7C }
  - { offset: 0xEACF6, size: 0x8, addend: 0x0, symName: __ZN4Pika6ScriptI19QuickerScriptConfigE12UnaryFunctorINSt3__125pointer_to_unary_functionIRKN8QStrings7QStringIcLm52EEEvEESA_vE3argINS_4DumbISA_EEEEKNS_8STLValueIS8_EERNS2_5FrameERKT_, symObjAddr: 0x298B8, symBinAddr: 0x100029F70, symSize: 0x7C }
  - { offset: 0xEAE88, size: 0x8, addend: 0x0, symName: __ZN4Pika6ScriptI19QuickerScriptConfigE12UnaryFunctorINSt3__125pointer_to_unary_functionIRKN8QStrings7QStringIcLm52EEEvEESA_vED1Ev, symObjAddr: 0x298B0, symBinAddr: 0x100029F68, symSize: 0x4 }
  - { offset: 0xEAEB4, size: 0x8, addend: 0x0, symName: __ZN4Pika6ScriptI19QuickerScriptConfigE12UnaryFunctorINSt3__125pointer_to_unary_functionIRKN8QStrings7QStringIcLm52EEEvEESA_vED0Ev, symObjAddr: 0x298B4, symBinAddr: 0x100029F6C, symSize: 0x4 }
  - { offset: 0xEAEE2, size: 0x8, addend: 0x0, symName: __ZN4Pika6ScriptI19QuickerScriptConfigE12UnaryFunctorINSt3__125pointer_to_unary_functionIRKN8QStrings7QStringIcLm52EEEvEESA_vED0Ev, symObjAddr: 0x298B4, symBinAddr: 0x100029F6C, symSize: 0x4 }
  - { offset: 0xEAF45, size: 0x8, addend: 0x0, symName: __ZNSt3__18_IterOpsINS_17_ClassicAlgPolicyEE9iter_swapB8ne180100IRN8QStrings7QStringIcLm52EE9_iteratorIcS6_EES9_EEvOT_OT0_, symObjAddr: 0x299A4, symBinAddr: 0x10002A05C, symSize: 0x68 }
  - { offset: 0xEB051, size: 0x8, addend: 0x0, symName: __ZN4Pika6ScriptI19QuickerScriptConfigE13BinaryFunctorINSt3__126pointer_to_binary_functionIRKN8QStrings7QStringIcLm52EEESA_vEESA_SA_vE8pikaCallERNS2_5FrameE, symObjAddr: 0x29A0C, symBinAddr: 0x10002A0C4, symSize: 0x138 }
  - { offset: 0xEB12D, size: 0x8, addend: 0x0, symName: __ZN4Pika6ScriptI19QuickerScriptConfigE13BinaryFunctorINSt3__126pointer_to_binary_functionIRKN8QStrings7QStringIcLm52EEESA_vEESA_SA_vE8pikaCallERNS2_5FrameE, symObjAddr: 0x29A0C, symBinAddr: 0x10002A0C4, symSize: 0x138 }
  - { offset: 0xEB68C, size: 0x8, addend: 0x0, symName: __ZN4Pika6ScriptI19QuickerScriptConfigE13BinaryFunctorINSt3__126pointer_to_binary_functionIRKN8QStrings7QStringIcLm52EEESA_vEESA_SA_vED1Ev, symObjAddr: 0x29B44, symBinAddr: 0x10002A1FC, symSize: 0x4 }
  - { offset: 0xEB6B8, size: 0x8, addend: 0x0, symName: __ZN4Pika6ScriptI19QuickerScriptConfigE13BinaryFunctorINSt3__126pointer_to_binary_functionIRKN8QStrings7QStringIcLm52EEESA_vEESA_SA_vED0Ev, symObjAddr: 0x29B48, symBinAddr: 0x10002A200, symSize: 0x4 }
  - { offset: 0xEB6E6, size: 0x8, addend: 0x0, symName: __ZN4Pika6ScriptI19QuickerScriptConfigE13BinaryFunctorINSt3__126pointer_to_binary_functionIRKN8QStrings7QStringIcLm52EEESA_vEESA_SA_vED0Ev, symObjAddr: 0x29B48, symBinAddr: 0x10002A200, symSize: 0x4 }
  - { offset: 0xEB7D0, size: 0x8, addend: 0x0, symName: __ZN4Pika6ScriptI19QuickerScriptConfigE12UnaryFunctorINSt3__125pointer_to_unary_functionIRKN8QStrings7QStringIcLm52EEEiEESA_iE8pikaCallERNS2_5FrameE, symObjAddr: 0x29CD0, symBinAddr: 0x10002A388, symSize: 0x68 }
  - { offset: 0xEB9A6, size: 0x8, addend: 0x0, symName: __ZN4Pika6ScriptI19QuickerScriptConfigE12UnaryFunctorINSt3__125pointer_to_unary_functionIRKN8QStrings7QStringIcLm52EEEiEESA_iE3argINS_4DumbISA_EEEEKNS_8STLValueIS8_EERNS2_5FrameERKT_, symObjAddr: 0x29D40, symBinAddr: 0x10002A3F8, symSize: 0x7C }
  - { offset: 0xEBB38, size: 0x8, addend: 0x0, symName: __ZN4Pika6ScriptI19QuickerScriptConfigE12UnaryFunctorINSt3__125pointer_to_unary_functionIRKN8QStrings7QStringIcLm52EEEiEESA_iED1Ev, symObjAddr: 0x29D38, symBinAddr: 0x10002A3F0, symSize: 0x4 }
  - { offset: 0xEBB64, size: 0x8, addend: 0x0, symName: __ZN4Pika6ScriptI19QuickerScriptConfigE12UnaryFunctorINSt3__125pointer_to_unary_functionIRKN8QStrings7QStringIcLm52EEEiEESA_iED0Ev, symObjAddr: 0x29D3C, symBinAddr: 0x10002A3F4, symSize: 0x4 }
  - { offset: 0xEBB92, size: 0x8, addend: 0x0, symName: __ZN4Pika6ScriptI19QuickerScriptConfigE12UnaryFunctorINSt3__125pointer_to_unary_functionIRKN8QStrings7QStringIcLm52EEEiEESA_iED0Ev, symObjAddr: 0x29D3C, symBinAddr: 0x10002A3F4, symSize: 0x4 }
  - { offset: 0xEBC01, size: 0x8, addend: 0x0, symName: __ZN4Pika6ScriptI19QuickerScriptConfigE12UnaryFunctorINSt3__125pointer_to_unary_functionIRKNS2_5FrameEvEES8_vE8pikaCallERS6_, symObjAddr: 0x29DBC, symBinAddr: 0x10002A474, symSize: 0x48 }
  - { offset: 0xEBD11, size: 0x8, addend: 0x0, symName: __ZN4Pika6ScriptI19QuickerScriptConfigE12UnaryFunctorINSt3__125pointer_to_unary_functionIRKNS2_5FrameEvEES8_vED1Ev, symObjAddr: 0x29E04, symBinAddr: 0x10002A4BC, symSize: 0x4 }
  - { offset: 0xEBD3D, size: 0x8, addend: 0x0, symName: __ZN4Pika6ScriptI19QuickerScriptConfigE12UnaryFunctorINSt3__125pointer_to_unary_functionIRKNS2_5FrameEvEES8_vED0Ev, symObjAddr: 0x29E08, symBinAddr: 0x10002A4C0, symSize: 0x4 }
  - { offset: 0xEBD6B, size: 0x8, addend: 0x0, symName: __ZN4Pika6ScriptI19QuickerScriptConfigE12UnaryFunctorINSt3__125pointer_to_unary_functionIRKNS2_5FrameEvEES8_vED0Ev, symObjAddr: 0x29E08, symBinAddr: 0x10002A4C0, symSize: 0x4 }
  - { offset: 0xEBDE3, size: 0x8, addend: 0x0, symName: __ZN4Pika6ScriptI19QuickerScriptConfigE12UnaryFunctorINSt3__125pointer_to_unary_functionIRKN8QStrings7QStringIcLm52EEES8_EESA_S8_E8pikaCallERNS2_5FrameE, symObjAddr: 0x29E0C, symBinAddr: 0x10002A4C4, symSize: 0x84 }
  - { offset: 0xEC05E, size: 0x8, addend: 0x0, symName: __ZN4Pika6ScriptI19QuickerScriptConfigE12UnaryFunctorINSt3__125pointer_to_unary_functionIRKN8QStrings7QStringIcLm52EEES8_EESA_S8_E3argINS_4DumbISA_EEEEKNS_8STLValueIS8_EERNS2_5FrameERKT_, symObjAddr: 0x29E98, symBinAddr: 0x10002A550, symSize: 0x7C }
  - { offset: 0xEC1F0, size: 0x8, addend: 0x0, symName: __ZN4Pika6ScriptI19QuickerScriptConfigE12UnaryFunctorINSt3__125pointer_to_unary_functionIRKN8QStrings7QStringIcLm52EEES8_EESA_S8_ED1Ev, symObjAddr: 0x29E90, symBinAddr: 0x10002A548, symSize: 0x4 }
  - { offset: 0xEC21C, size: 0x8, addend: 0x0, symName: __ZN4Pika6ScriptI19QuickerScriptConfigE12UnaryFunctorINSt3__125pointer_to_unary_functionIRKN8QStrings7QStringIcLm52EEES8_EESA_S8_ED0Ev, symObjAddr: 0x29E94, symBinAddr: 0x10002A54C, symSize: 0x4 }
  - { offset: 0xEC24A, size: 0x8, addend: 0x0, symName: __ZN4Pika6ScriptI19QuickerScriptConfigE12UnaryFunctorINSt3__125pointer_to_unary_functionIRKN8QStrings7QStringIcLm52EEES8_EESA_S8_ED0Ev, symObjAddr: 0x29E94, symBinAddr: 0x10002A54C, symSize: 0x4 }
  - { offset: 0xEC4F5, size: 0x8, addend: 0x0, symName: __ZNSt3__114__split_bufferIN4Pika8STLValueIN8QStrings7QStringIcLm52EEEEERNS_9allocatorIS6_EEED2Ev, symObjAddr: 0x2A1A4, symBinAddr: 0x10002A85C, symSize: 0x4C }
  - { offset: 0xEC72D, size: 0x8, addend: 0x0, symName: _OUTLINED_FUNCTION_0, symObjAddr: 0x2CFA0, symBinAddr: 0x10002A930, symSize: 0x8 }
  - { offset: 0xEC745, size: 0x8, addend: 0x0, symName: _OUTLINED_FUNCTION_1, symObjAddr: 0x2CFA8, symBinAddr: 0x10002A938, symSize: 0x8 }
  - { offset: 0xEC75D, size: 0x8, addend: 0x0, symName: _OUTLINED_FUNCTION_2, symObjAddr: 0x2CFB0, symBinAddr: 0x10002A940, symSize: 0x8 }
  - { offset: 0xEC775, size: 0x8, addend: 0x0, symName: _OUTLINED_FUNCTION_3, symObjAddr: 0x2CFB8, symBinAddr: 0x10002A948, symSize: 0x8 }
  - { offset: 0xEC78D, size: 0x8, addend: 0x0, symName: _OUTLINED_FUNCTION_4, symObjAddr: 0x2CFC0, symBinAddr: 0x10002A950, symSize: 0x8 }
  - { offset: 0xEC7A5, size: 0x8, addend: 0x0, symName: _OUTLINED_FUNCTION_5, symObjAddr: 0x2CFC8, symBinAddr: 0x10002A958, symSize: 0x8 }
  - { offset: 0xEC7BD, size: 0x8, addend: 0x0, symName: _OUTLINED_FUNCTION_6, symObjAddr: 0x2CFD0, symBinAddr: 0x10002A960, symSize: 0x8 }
  - { offset: 0xEC7D5, size: 0x8, addend: 0x0, symName: _OUTLINED_FUNCTION_7, symObjAddr: 0x2CFD8, symBinAddr: 0x10002A968, symSize: 0x8 }
  - { offset: 0xEC7ED, size: 0x8, addend: 0x0, symName: _OUTLINED_FUNCTION_8, symObjAddr: 0x2CFE0, symBinAddr: 0x10002A970, symSize: 0x8 }
  - { offset: 0xEC805, size: 0x8, addend: 0x0, symName: _OUTLINED_FUNCTION_9, symObjAddr: 0x2CFE8, symBinAddr: 0x10002A978, symSize: 0x8 }
  - { offset: 0xEC81D, size: 0x8, addend: 0x0, symName: _OUTLINED_FUNCTION_10, symObjAddr: 0x2CFF0, symBinAddr: 0x10002A980, symSize: 0x8 }
  - { offset: 0xEC835, size: 0x8, addend: 0x0, symName: _OUTLINED_FUNCTION_11, symObjAddr: 0x2CFF8, symBinAddr: 0x10002A988, symSize: 0x8 }
  - { offset: 0xEC84D, size: 0x8, addend: 0x0, symName: _OUTLINED_FUNCTION_12, symObjAddr: 0x2D000, symBinAddr: 0x10002A990, symSize: 0x8 }
  - { offset: 0xEC865, size: 0x8, addend: 0x0, symName: _OUTLINED_FUNCTION_13, symObjAddr: 0x2D008, symBinAddr: 0x10002A998, symSize: 0x8 }
  - { offset: 0xEC87D, size: 0x8, addend: 0x0, symName: _OUTLINED_FUNCTION_14, symObjAddr: 0x2D010, symBinAddr: 0x10002A9A0, symSize: 0x8 }
  - { offset: 0xEC895, size: 0x8, addend: 0x0, symName: _OUTLINED_FUNCTION_15, symObjAddr: 0x2D018, symBinAddr: 0x10002A9A8, symSize: 0x8 }
  - { offset: 0xEC8AD, size: 0x8, addend: 0x0, symName: _OUTLINED_FUNCTION_16, symObjAddr: 0x2D020, symBinAddr: 0x10002A9B0, symSize: 0x8 }
  - { offset: 0xEC8C5, size: 0x8, addend: 0x0, symName: _OUTLINED_FUNCTION_17, symObjAddr: 0x2D028, symBinAddr: 0x10002A9B8, symSize: 0x8 }
...
